Certificate:
    Data:
        Version: 3 (0x2)
        Serial Number: 4100 (0x1004)
        Signature Algorithm: sha256WithRSAEncryption
        Issuer: C=GB, ST= , O= , CN=Test CA
        Validity
            Not Before: Jan 11 20:03:14 2022 GMT
            Not After : Jan 11 20:03:14 2023 GMT
        Subject: C=GB, ST= , O= , CN=config.test
        Subject Public Key Info:
            Public Key Algorithm: rsaEncryption
                RSA Public-Key: (4096 bit)
                Modulus:
                    00:ef:ab:1a:a2:6f:ef:97:42:7b:11:14:30:95:ba:
                    5b:04:7c:49:cd:a5:66:4d:37:6a:bf:c2:f4:1b:86:
                    97:aa:15:c5:c2:bd:81:5d:fc:76:4e:87:0f:27:aa:
                    74:91:53:2d:d8:a8:5e:99:19:3a:ac:7b:7f:00:99:
                    18:d2:57:6e:81:d5:c2:2f:cb:64:69:c5:5f:d2:d8:
                    96:d4:ca:5b:8f:42:2b:cb:e9:bf:22:01:f7:1c:35:
                    2c:72:b7:05:0d:e4:6c:8c:3e:51:5c:16:29:02:15:
                    41:43:19:e9:e9:74:32:97:c8:09:36:50:cb:b5:7c:
                    aa:cf:6d:fd:b6:12:ff:f9:9a:5c:58:7f:9e:cb:e4:
                    55:a5:77:54:5c:89:1c:1f:f0:f9:bd:e4:c0:7a:b0:
                    03:51:53:19:b9:61:17:6d:cd:d0:ab:3b:90:e2:d3:
                    88:21:34:de:ac:7e:cd:db:62:23:6d:24:7f:02:4f:
                    15:72:1c:52:59:7e:29:31:b2:36:c4:1a:3d:14:b3:
                    4c:16:0d:02:aa:b6:08:e2:7e:eb:a2:ad:a4:72:bb:
                    fb:5a:4e:68:38:f2:98:c6:35:ae:98:8a:83:fc:23:
                    12:54:d8:dd:08:b3:00:ea:91:a5:f9:ce:8c:70:ce:
                    a3:e7:2b:7e:fa:44:cf:c1:72:d2:86:ad:60:c5:a0:
                    ce:54:98:4b:bc:a4:60:b0:60:88:ce:bf:2a:ea:5f:
                    4b:58:56:bc:0f:cd:d2:2a:0a:2a:37:eb:35:13:70:
                    2e:56:aa:4e:82:e9:f5:d7:b8:06:ce:eb:69:66:db:
                    e6:34:e6:45:b9:09:3b:cd:e1:db:29:4a:cc:c0:61:
                    f7:5f:21:aa:31:7d:6e:2d:57:a6:d2:97:6f:b5:f3:
                    d8:37:f3:56:3f:54:6e:86:f1:32:b7:1f:af:84:4d:
                    9f:40:28:55:2a:7d:5e:2d:a4:80:4d:b0:03:73:fc:
                    03:48:44:f8:18:9f:88:e3:d9:e0:58:4c:43:67:5a:
                    07:22:ca:58:33:21:4f:3d:89:b0:2b:b4:39:40:e5:
                    f3:36:cf:e6:5b:2d:39:cd:f4:92:68:71:93:c7:80:
                    bf:f6:b9:82:ac:a0:f7:67:29:f4:3c:56:d8:4b:ae:
                    60:82:64:cf:d1:de:2a:14:c9:36:15:fc:2a:7b:8f:
                    3c:88:bf:56:99:fd:a3:9b:95:b7:84:85:59:c7:08:
                    79:f2:38:17:7c:da:25:3d:58:49:d5:d5:e7:a8:d3:
                    92:48:5a:3b:a6:7e:b5:e4:f6:bd:7f:48:a3:2d:8f:
                    b5:fb:3e:6e:a4:2b:e4:ed:b6:32:bb:67:ec:9e:12:
                    34:73:5a:a7:fa:6c:0e:f8:57:2e:cb:00:93:73:07:
                    23:c7:19
                Exponent: 65537 (0x10001)
        X509v3 extensions:
            X509v3 Subject Alternative Name: 
                DNS:config.test
    Signature Algorithm: sha256WithRSAEncryption
         0d:e9:1b:a0:fc:40:49:4e:b6:50:96:8c:a3:7b:81:12:7b:68:
         1d:e6:5a:ef:f1:ed:74:af:6d:7b:01:f7:35:8c:52:43:a7:0d:
         12:40:96:b5:1f:d7:06:b9:b2:9f:db:3b:83:1b:4f:a3:4f:3f:
         1f:f7:15:c4:27:76:cc:5a:8c:97:f5:62:88:ae:d0:55:11:e7:
         b9:5c:bd:0e:c3:ed:55:dd:b5:62:a5:b7:d3:92:89:0f:cf:83:
         7b:06:a0:1c:68:1c:22:c9:2b:75:5b:da:71:71:6f:f1:82:5c:
         8d:d5:9d:c0:48:0f:03:c6:78:fc:24:23:9a:a5:bb:74:a8:90:
         5d:be:11:8b:18:54:cb:ed:c7:8c:39:94:1a:75:b3:17:2b:bc:
         85:db:0d:a4:4c:d1:ce:ab:aa:39:63:ff:9b:aa:4e:75:42:ad:
         02:ee:79:b9:51:5f:ad:60:73:9e:28:74:83:bb:2b:e3:24:15:
         38:c2:dc:6f:37:63:bf:f8:c7:96:45:b3:da:7a:8a:a5:70:d1:
         9a:8b:88:00:84:21:a0:b5:68:ae:04:13:fd:ac:70:b0:25:b2:
         e4:4c:7e:d2:ed:81:da:67:b4:32:3d:e5:f7:cd:5f:50:39:aa:
         b7:74:0a:f4:29:5f:ec:59:c0:d6:49:0b:43:6b:79:0b:ca:75:
         74:87:4e:e5:b5:d1:24:f5:22:bd:9a:47:8d:8b:f2:ca:8a:80:
         71:df:aa:90:aa:54:a4:d2:0d:df:e0:5b:f4:71:92:aa:b5:54:
         d9:7d:72:d9:83:cf:b2:15:66:1c:24:9c:6b:7f:29:94:d5:77:
         ff:ac:ab:5b:47:1f:be:06:4c:bc:fa:0c:24:57:db:f6:aa:4d:
         8f:6f:66:4d:50:a5:75:b7:16:2d:5d:57:b6:8f:39:bc:42:e7:
         3d:c3:6b:51:73:11:0a:5c:09:55:23:a8:88:29:c5:5e:45:89:
         36:a7:84:05:c2:d7:78:8e:1c:c0:67:67:36:d5:d6:6b:56:e6:
         4c:16:72:e4:f6:91:a1:47:2b:50:23:4b:70:dc:82:19:6d:92:
         d7:b7:7a:c5:59:16:11:78:41:56:bb:ac:ff:18:a2:97:a5:c2:
         1e:6a:f1:17:21:a7:0a:a7:e8:5d:6b:4e:91:48:61:b1:e3:09:
         c6:cc:cb:87:35:10:54:29:92:75:b7:5f:b1:b0:2d:d9:ea:a4:
         67:45:b7:a3:b7:db:f9:46:03:53:36:c6:0f:4b:86:96:69:b7:
         f7:87:ee:c6:1f:7e:ca:7d:40:5f:ad:72:6b:04:2f:54:96:69:
         1c:63:99:59:65:a8:18:0a:cc:c7:4d:df:64:f2:9f:d5:8e:65:
         7c:ad:3e:8f:28:a3:c1:52
-----BEGIN CERTIFICATE-----
MIIFCDCCAvCgAwIBAgICEAQwDQYJKoZIhvcNAQELBQAwNzELMAkGA1UEBhMCR0Ix
CjAIBgNVBAgMASAxCjAIBgNVBAoMASAxEDAOBgNVBAMMB1Rlc3QgQ0EwHhcNMjIw
MTExMjAwMzE0WhcNMjMwMTExMjAwMzE0WjA7MQswCQYDVQQGEwJHQjEKMAgGA1UE
CAwBIDEKMAgGA1UECgwBIDEUMBIGA1UEAwwLY29uZmlnLnRlc3QwggIiMA0GCSqG
SIb3DQEBAQUAA4ICDwAwggIKAoICAQDvqxqib++XQnsRFDCVulsEfEnNpWZNN2q/
wvQbhpeqFcXCvYFd/HZOhw8nqnSRUy3YqF6ZGTqse38AmRjSV26B1cIvy2RpxV/S
2JbUyluPQivL6b8iAfccNSxytwUN5GyMPlFcFikCFUFDGenpdDKXyAk2UMu1fKrP
bf22Ev/5mlxYf57L5FWld1RciRwf8Pm95MB6sANRUxm5YRdtzdCrO5Di04ghNN6s
fs3bYiNtJH8CTxVyHFJZfikxsjbEGj0Us0wWDQKqtgjifuuiraRyu/taTmg48pjG
Na6YioP8IxJU2N0IswDqkaX5zoxwzqPnK376RM/BctKGrWDFoM5UmEu8pGCwYIjO
vyrqX0tYVrwPzdIqCio36zUTcC5Wqk6C6fXXuAbO62lm2+Y05kW5CTvN4dspSszA
YfdfIaoxfW4tV6bSl2+189g381Y/VG6G8TK3H6+ETZ9AKFUqfV4tpIBNsANz/ANI
RPgYn4jj2eBYTENnWgciylgzIU89ibArtDlA5fM2z+ZbLTnN9JJocZPHgL/2uYKs
oPdnKfQ8VthLrmCCZM/R3ioUyTYV/Cp7jzyIv1aZ/aOblbeEhVnHCHnyOBd82iU9
WEnV1eeo05JIWjumfrXk9r1/SKMtj7X7Pm6kK+TttjK7Z+yeEjRzWqf6bA74Vy7L
AJNzByPHGQIDAQABoxowGDAWBgNVHREEDzANggtjb25maWcudGVzdDANBgkqhkiG
9w0BAQsFAAOCAgEADekboPxASU62UJaMo3uBEntoHeZa7/HtdK9tewH3NYxSQ6cN
EkCWtR/XBrmyn9s7gxtPo08/H/cVxCd2zFqMl/ViiK7QVRHnuVy9DsPtVd21YqW3
05KJD8+DewagHGgcIskrdVvacXFv8YJcjdWdwEgPA8Z4/CQjmqW7dKiQXb4RixhU
y+3HjDmUGnWzFyu8hdsNpEzRzquqOWP/m6pOdUKtAu55uVFfrWBznih0g7sr4yQV
OMLcbzdjv/jHlkWz2nqKpXDRmouIAIQhoLVorgQT/axwsCWy5Ex+0u2B2me0Mj3l
981fUDmqt3QK9Clf7FnA1kkLQ2t5C8p1dIdO5bXRJPUivZpHjYvyyoqAcd+qkKpU
pNIN3+Bb9HGSqrVU2X1y2YPPshVmHCSca38plNV3/6yrW0cfvgZMvPoMJFfb9qpN
j29mTVCldbcWLV1Xto85vELnPcNrUXMRClwJVSOoiCnFXkWJNqeEBcLXeI4cwGdn
NtXWa1bmTBZy5PaRoUcrUCNLcNyCGW2S17d6xVkWEXhBVrus/xiil6XCHmrxFyGn
CqfoXWtOkUhhseMJxszLhzUQVCmSdbdfsbAt2eqkZ0W3o7fb+UYDUzbGD0uGlmm3
94fuxh9+yn1AX61yawQvVJZpHGOZWWWoGArMx03fZPKf1Y5lfK0+jyijwVI=
-----END CERTIFICATE-----
