Certificate:
    Data:
        Version: 3 (0x2)
        Serial Number: 4122 (0x101a)
        Signature Algorithm: sha256WithRSAEncryption
        Issuer: C=GB, ST= , O= , CN=Test CA
        Validity
            Not Before: Oct 18 15:42:37 2024 GMT
            Not After : Oct 17 15:42:37 2029 GMT
        Subject: C=GB, ST= , O= , CN=history.test
        Subject Public Key Info:
            Public Key Algorithm: rsaEncryption
                Public-Key: (2048 bit)
                Modulus:
                    00:93:60:f3:99:40:f3:1c:58:b8:63:45:bb:32:35:
                    89:1a:07:f4:05:bf:c4:48:29:6c:0c:b8:a6:2c:3c:
                    e8:3b:3e:dc:73:59:06:55:ff:7f:4a:5a:b4:a7:a3:
                    82:46:88:d0:55:f3:3b:27:0d:01:6c:cd:73:69:00:
                    6a:f8:a8:12:1b:19:e4:3d:2c:0c:8c:1a:e0:9b:00:
                    4e:63:e9:3a:e3:24:52:7a:b1:16:0a:ff:51:c3:d3:
                    69:e1:94:4b:5b:8a:f3:3a:78:d2:bb:fb:0b:d0:fd:
                    b3:53:36:97:3a:57:5e:23:cb:21:ab:49:90:68:3f:
                    9c:ad:c5:6a:b3:ea:15:c5:f9:11:eb:13:d2:d8:b0:
                    30:a4:4c:11:7d:a5:5d:fa:09:aa:d2:58:37:59:7c:
                    2f:6d:90:71:c9:26:7c:21:18:37:12:c1:f8:e5:64:
                    26:82:e4:66:0d:fd:c2:f1:f9:3c:d8:8f:d1:5f:d5:
                    0c:e2:00:cb:74:81:3c:9a:e2:a2:bb:a9:ea:3f:40:
                    d3:8e:75:9e:21:9d:59:98:ae:7e:26:6e:1d:7a:77:
                    7f:b3:0f:01:c7:55:82:b4:b8:8e:96:e1:82:18:78:
                    d4:78:dd:33:4b:b3:18:76:b9:da:34:14:d1:17:db:
                    2c:01:c8:70:74:82:ef:39:95:02:7d:94:34:48:f4:
                    de:19
                Exponent: 65537 (0x10001)
        X509v3 extensions:
            X509v3 Subject Alternative Name: 
                DNS:history.test
            X509v3 Subject Key Identifier: 
                9E:17:EE:DA:FE:B3:8E:85:45:6D:2D:E2:B5:05:21:B4:34:91:08:28
            X509v3 Authority Key Identifier: 
                59:7A:09:B8:DA:B7:DB:E4:09:82:F5:79:2A:54:B8:C6:E6:7B:1B:0A
    Signature Algorithm: sha256WithRSAEncryption
    Signature Value:
        07:07:be:fa:88:de:50:d1:27:0e:f9:a3:78:8c:44:f9:8d:4e:
        a3:99:8e:01:48:81:23:d4:24:6a:b2:ca:cc:f0:66:b3:91:82:
        13:22:cf:21:6d:8a:3d:4e:c9:8a:cf:b6:f9:f2:bb:ec:e1:01:
        53:42:21:c8:94:99:6b:45:52:13:ee:9e:cb:69:a5:32:df:b6:
        67:5a:47:d7:9d:0d:f9:c5:28:9a:93:cd:d3:fb:d7:ad:b1:a5:
        fc:cd:75:0a:86:e2:b5:af:6f:30:43:10:11:1f:45:d8:15:99:
        bb:e2:cf:ae:c6:c8:ec:84:86:c8:a7:0b:ae:30:e1:a5:9e:3c:
        f9:7d:53:35:c3:df:7c:83:ce:78:7b:38:3b:b3:8f:58:09:c5:
        81:6d:02:b7:ec:dd:1e:8b:e1:10:85:ef:3f:0b:84:8c:3a:7d:
        90:04:68:f9:2e:02:7f:a3:25:64:9d:0f:04:1c:39:4c:12:d2:
        5e:3c:59:00:06:8e:d2:9a:b9:fd:e9:0f:76:52:33:c0:18:75:
        09:2a:42:fd:24:0b:dc:f4:4a:32:d7:85:54:ae:97:68:49:b0:
        7e:b9:da:67:79:fb:b3:97:c6:54:2c:54:6c:1c:f4:c2:1a:06:
        11:77:57:c1:d9:64:31:b7:1e:61:df:ed:cd:38:10:67:c7:4d:
        6b:3f:68:57:8b:c3:2b:f0:02:17:b0:aa:92:9a:a0:7e:52:18:
        4f:98:40:55:d5:f6:7e:e0:53:c4:f8:83:43:d2:ae:d2:d9:0f:
        8e:fc:d5:22:95:63:25:69:2c:65:dc:01:c9:63:e2:e5:9c:7f:
        ad:2b:8d:73:73:e1:80:b3:5c:cd:89:a8:a1:c0:28:37:86:a7:
        83:36:bf:18:20:9e:a6:c0:d6:cc:df:5a:bd:fc:a8:0a:6b:2f:
        c1:ff:0f:ac:40:15:df:95:ed:79:11:23:93:28:4c:e7:fb:96:
        58:a1:28:5d:c5:32:77:b5:12:48:b0:82:0b:2c:fe:7a:34:5f:
        26:27:df:2b:61:05:25:14:fc:dd:69:cf:0d:a4:35:09:63:b8:
        34:85:c1:f4:f0:9f:f2:7a:23:bc:66:c8:d6:5d:c0:27:6e:ca:
        83:f6:39:4b:1d:89:04:ca:8f:11:89:18:de:af:37:85:42:03:
        68:b0:c4:82:c2:ca:0b:f5:fd:09:fb:9a:c8:fb:af:67:ec:30:
        eb:24:de:8c:90:0f:59:71:5e:4c:bf:e1:33:35:57:f0:bc:4d:
        2b:c2:a3:0c:b7:7a:4b:9c:b1:d7:ab:09:e7:11:45:3d:4a:c9:
        90:8f:ee:88:51:13:de:62:f3:a7:20:09:cb:bc:8d:0d:9c:28:
        f2:59:f5:a7:4c:e5:9c:8a
-----BEGIN CERTIFICATE-----
MIIESjCCAjKgAwIBAgICEBowDQYJKoZIhvcNAQELBQAwNzELMAkGA1UEBhMCR0Ix
CjAIBgNVBAgMASAxCjAIBgNVBAoMASAxEDAOBgNVBAMMB1Rlc3QgQ0EwHhcNMjQx
MDE4MTU0MjM3WhcNMjkxMDE3MTU0MjM3WjA8MQswCQYDVQQGEwJHQjEKMAgGA1UE
CAwBIDEKMAgGA1UECgwBIDEVMBMGA1UEAwwMaGlzdG9yeS50ZXN0MIIBIjANBgkq
hkiG9w0BAQEFAAOCAQ8AMIIBCgKCAQEAk2DzmUDzHFi4Y0W7MjWJGgf0Bb/ESCls
DLimLDzoOz7cc1kGVf9/Slq0p6OCRojQVfM7Jw0BbM1zaQBq+KgSGxnkPSwMjBrg
mwBOY+k64yRSerEWCv9Rw9Np4ZRLW4rzOnjSu/sL0P2zUzaXOldeI8shq0mQaD+c
rcVqs+oVxfkR6xPS2LAwpEwRfaVd+gmq0lg3WXwvbZBxySZ8IRg3EsH45WQmguRm
Df3C8fk82I/RX9UM4gDLdIE8muKiu6nqP0DTjnWeIZ1ZmK5+Jm4dend/sw8Bx1WC
tLiOluGCGHjUeN0zS7MYdrnaNBTRF9ssAchwdILvOZUCfZQ0SPTeGQIDAQABo1sw
WTAXBgNVHREEEDAOggxoaXN0b3J5LnRlc3QwHQYDVR0OBBYEFJ4X7tr+s46FRW0t
4rUFIbQ0kQgoMB8GA1UdIwQYMBaAFFl6Cbjat9vkCYL1eSpUuMbmexsKMA0GCSqG
SIb3DQEBCwUAA4ICAQAHB776iN5Q0ScO+aN4jET5jU6jmY4BSIEj1CRqssrM8Gaz
kYITIs8hbYo9TsmKz7b58rvs4QFTQiHIlJlrRVIT7p7LaaUy37ZnWkfXnQ35xSia
k83T+9etsaX8zXUKhuK1r28wQxARH0XYFZm74s+uxsjshIbIpwuuMOGlnjz5fVM1
w998g854ezg7s49YCcWBbQK37N0ei+EQhe8/C4SMOn2QBGj5LgJ/oyVknQ8EHDlM
EtJePFkABo7Smrn96Q92UjPAGHUJKkL9JAvc9Eoy14VUrpdoSbB+udpnefuzl8ZU
LFRsHPTCGgYRd1fB2WQxtx5h3+3NOBBnx01rP2hXi8Mr8AIXsKqSmqB+UhhPmEBV
1fZ+4FPE+IND0q7S2Q+O/NUilWMlaSxl3AHJY+LlnH+tK41zc+GAs1zNiaihwCg3
hqeDNr8YIJ6mwNbM31q9/KgKay/B/w+sQBXfle15ESOTKEzn+5ZYoShdxTJ3tRJI
sIILLP56NF8mJ98rYQUlFPzdac8NpDUJY7g0hcH08J/yeiO8ZsjWXcAnbsqD9jlL
HYkEyo8RiRjerzeFQgNosMSCwsoL9f0J+5rI+69n7DDrJN6MkA9ZcV5Mv+EzNVfw
vE0rwqMMt3pLnLHXqwnnEUU9SsmQj+6IURPeYvOnIAnLvI0NnCjyWfWnTOWcig==
-----END CERTIFICATE-----
