Certificate:
    Data:
        Version: 3 (0x2)
        Serial Number: 4115 (0x1013)
        Signature Algorithm: sha256WithRSAEncryption
        Issuer: C=GB, ST= , O= , CN=Test CA
        Validity
            Not Before: Feb  4 06:55:13 2024 GMT
            Not After : Feb  2 06:55:13 2029 GMT
        Subject: O=test, CN=user1
        Subject Public Key Info:
            Public Key Algorithm: rsaEncryption
                RSA Public-Key: (2048 bit)
                Modulus:
                    00:b1:9a:b4:7e:d0:fa:86:5b:9d:61:d3:7e:3c:62:
                    86:dc:97:8e:8d:56:6f:34:77:d2:5b:0a:85:53:27:
                    11:14:7b:f9:1f:84:f7:66:14:43:bf:77:c2:c2:8e:
                    db:47:5c:e5:94:53:a2:f5:2e:7d:ae:d5:ac:4b:95:
                    ff:47:c3:82:ca:d4:99:43:dc:ce:82:d2:36:1e:57:
                    84:88:34:03:fa:af:88:9b:a2:0b:29:8e:a3:8d:de:
                    18:9f:46:28:0a:13:16:fa:22:74:ce:4e:52:05:93:
                    70:02:8b:6a:71:43:c9:cc:30:b6:e5:e2:71:cd:be:
                    13:de:bc:0e:57:6a:0c:74:4b:79:f2:61:e8:90:2a:
                    85:14:22:15:de:21:77:1d:28:00:af:cb:59:cf:8e:
                    9f:7f:dc:89:4e:de:2b:c8:95:1a:05:f3:fc:c3:4b:
                    81:35:f8:89:0d:d0:3b:16:4d:1e:60:6a:c8:3f:89:
                    6b:44:3b:83:d4:80:eb:ec:73:95:36:f6:4d:c6:16:
                    a3:ba:10:f6:3d:2d:ba:2d:cc:8d:1f:5f:b7:47:10:
                    10:21:1d:33:44:40:f9:d3:60:35:2e:a2:30:9a:66:
                    4e:95:0d:24:ce:9b:5c:44:72:5c:e1:93:c2:d2:6f:
                    ae:a5:c6:96:2b:f2:f6:3d:12:ae:2b:11:9f:7a:75:
                    a3:87
                Exponent: 65537 (0x10001)
        X509v3 extensions:
            X509v3 Basic Constraints: 
                CA:FALSE
            Netscape Cert Type: 
                SSL Client, SSL Server
            Netscape Comment: 
                OpenSSL Generated Certificate
            X509v3 Subject Key Identifier: 
                84:4C:4B:FB:8A:A5:46:1E:69:76:C8:23:2D:C8:1B:A0:70:C4:3F:3C
            X509v3 Authority Key Identifier: 
                keyid:59:7A:09:B8:DA:B7:DB:E4:09:82:F5:79:2A:54:B8:C6:E6:7B:1B:0A

    Signature Algorithm: sha256WithRSAEncryption
         81:98:30:47:62:54:c6:97:b6:c6:fd:90:76:71:a1:52:30:7c:
         ff:82:f6:3d:17:b0:2a:10:75:4f:2b:bf:55:a6:2c:c7:ff:b1:
         60:56:c6:b2:3c:2d:d9:b0:09:9b:f1:f4:b9:1e:0b:13:31:b2:
         01:5b:56:3a:b1:9d:ca:76:ec:f7:00:fb:7c:09:b0:7c:fe:b3:
         ab:3d:f1:7a:8f:da:88:eb:3e:42:5d:3b:9e:80:53:35:cb:99:
         2e:aa:e8:c4:16:52:dd:79:b5:54:61:37:ae:01:33:d1:13:e9:
         54:0f:18:6a:10:53:96:f2:cf:cd:d4:f3:2e:73:89:d7:32:4c:
         c4:26:ee:3c:cf:45:0a:93:5f:6c:98:24:14:97:ef:8b:f2:d4:
         68:f1:f7:3c:8d:f9:c9:95:02:28:74:e1:e7:7e:66:d6:a4:02:
         f4:bc:e9:c2:81:c2:ff:9e:28:2a:fd:32:14:72:95:c8:3f:d5:
         6e:da:06:c9:e5:20:a6:34:ff:d7:59:b8:6b:3d:7b:e1:ef:a2:
         49:be:33:99:50:5d:66:04:28:5f:b7:e8:97:a4:58:4f:f5:49:
         6d:0d:06:b6:73:74:23:6d:c5:ca:9f:64:9b:2e:9f:8b:9b:fd:
         30:8b:bf:cb:1c:99:59:40:d3:46:5a:26:81:89:0f:ab:20:85:
         b3:11:63:46:6f:78:a3:a6:46:ba:b6:67:78:d9:53:f6:7a:67:
         45:0c:dc:3c:9d:ba:8b:eb:bf:2f:5b:04:61:bb:37:af:98:24:
         39:ba:df:01:b2:c0:4d:bc:1b:6a:7c:db:2b:31:5a:69:ee:c4:
         db:04:fa:11:16:12:bf:5c:06:a9:f3:01:5f:f5:e1:f4:13:af:
         fe:4e:21:6e:2d:31:44:0a:66:93:7d:77:8a:10:5f:53:5e:87:
         84:35:28:54:ee:bb:d5:97:2c:b9:de:eb:78:b9:f3:70:55:6e:
         f9:12:38:a0:f9:f3:a4:5b:35:e0:ea:54:e2:4b:32:d9:92:a2:
         d8:97:30:c2:25:23:70:f6:9e:40:c4:bb:7b:e4:e6:73:49:85:
         8c:41:f6:b7:ce:01:64:7c:f3:90:3e:33:32:e0:c4:b2:e2:e8:
         8d:ae:6b:cf:07:d1:a3:a8:24:47:b3:df:1c:7d:45:83:08:18:
         15:9c:82:f2:05:0e:70:1a:50:5d:5b:f1:29:43:cd:fe:19:e1:
         ea:e2:e0:c0:37:54:b1:28:63:e4:c5:a1:70:d6:c3:52:5c:2d:
         2e:63:af:ba:49:80:6b:4b:5c:e3:3a:1f:c0:70:30:6b:24:e0:
         2e:ca:17:b2:f0:ec:bd:0f:fd:d3:1c:b1:65:56:41:50:6f:c0:
         50:f4:43:20:f0:b2:5c:f5
-----BEGIN CERTIFICATE-----
MIIEYjCCAkqgAwIBAgICEBMwDQYJKoZIhvcNAQELBQAwNzELMAkGA1UEBhMCR0Ix
CjAIBgNVBAgMASAxCjAIBgNVBAoMASAxEDAOBgNVBAMMB1Rlc3QgQ0EwHhcNMjQw
MjA0MDY1NTEzWhcNMjkwMjAyMDY1NTEzWjAfMQ0wCwYDVQQKDAR0ZXN0MQ4wDAYD
VQQDDAV1c2VyMTCCASIwDQYJKoZIhvcNAQEBBQADggEPADCCAQoCggEBALGatH7Q
+oZbnWHTfjxihtyXjo1WbzR30lsKhVMnERR7+R+E92YUQ793wsKO20dc5ZRTovUu
fa7VrEuV/0fDgsrUmUPczoLSNh5XhIg0A/qviJuiCymOo43eGJ9GKAoTFvoidM5O
UgWTcAKLanFDycwwtuXicc2+E968DldqDHRLefJh6JAqhRQiFd4hdx0oAK/LWc+O
n3/ciU7eK8iVGgXz/MNLgTX4iQ3QOxZNHmBqyD+Ja0Q7g9SA6+xzlTb2TcYWo7oQ
9j0tui3MjR9ft0cQECEdM0RA+dNgNS6iMJpmTpUNJM6bXERyXOGTwtJvrqXGlivy
9j0SrisRn3p1o4cCAwEAAaOBjzCBjDAJBgNVHRMEAjAAMBEGCWCGSAGG+EIBAQQE
AwIGwDAsBglghkgBhvhCAQ0EHxYdT3BlblNTTCBHZW5lcmF0ZWQgQ2VydGlmaWNh
dGUwHQYDVR0OBBYEFIRMS/uKpUYeaXbIIy3IG6BwxD88MB8GA1UdIwQYMBaAFFl6
Cbjat9vkCYL1eSpUuMbmexsKMA0GCSqGSIb3DQEBCwUAA4ICAQCBmDBHYlTGl7bG
/ZB2caFSMHz/gvY9F7AqEHVPK79VpizH/7FgVsayPC3ZsAmb8fS5HgsTMbIBW1Y6
sZ3Kduz3APt8CbB8/rOrPfF6j9qI6z5CXTuegFM1y5kuqujEFlLdebVUYTeuATPR
E+lUDxhqEFOW8s/N1PMuc4nXMkzEJu48z0UKk19smCQUl++L8tRo8fc8jfnJlQIo
dOHnfmbWpAL0vOnCgcL/nigq/TIUcpXIP9Vu2gbJ5SCmNP/XWbhrPXvh76JJvjOZ
UF1mBChft+iXpFhP9UltDQa2c3QjbcXKn2SbLp+Lm/0wi7/LHJlZQNNGWiaBiQ+r
IIWzEWNGb3ijpka6tmd42VP2emdFDNw8nbqL678vWwRhuzevmCQ5ut8BssBNvBtq
fNsrMVpp7sTbBPoRFhK/XAap8wFf9eH0E6/+TiFuLTFECmaTfXeKEF9TXoeENShU
7rvVlyy53ut4ufNwVW75Ejig+fOkWzXg6lTiSzLZkqLYlzDCJSNw9p5AxLt75OZz
SYWMQfa3zgFkfPOQPjMy4MSy4uiNrmvPB9GjqCRHs98cfUWDCBgVnILyBQ5wGlBd
W/EpQ83+GeHq4uDAN1SxKGPkxaFw1sNSXC0uY6+6SYBrS1zjOh/AcDBrJOAuyhey
8Oy9D/3THLFlVkFQb8BQ9EMg8LJc9Q==
-----END CERTIFICATE-----
