Certificate:
    Data:
        Version: 3 (0x2)
        Serial Number: 4121 (0x1019)
        Signature Algorithm: sha256WithRSAEncryption
        Issuer: C=GB, ST= , O= , CN=Test CA
        Validity
            Not Before: Feb  4 07:00:01 2024 GMT
            Not After : Feb  2 07:00:01 2029 GMT
        Subject: C=GB, O=test, CN=services.test
        Subject Public Key Info:
            Public Key Algorithm: rsaEncryption
                RSA Public-Key: (2048 bit)
                Modulus:
                    00:9b:b1:64:e9:08:b5:14:e2:3c:98:82:65:2e:5a:
                    83:19:3a:be:97:e3:a3:c2:1b:f5:ab:65:66:e7:f0:
                    95:c3:f8:d4:bb:ee:57:9c:3a:70:ee:44:53:da:1b:
                    8a:6d:2a:8a:07:ed:1a:1e:ed:07:19:28:eb:d0:75:
                    1c:7c:5e:83:60:e2:b8:ba:a4:bc:3f:b5:55:32:a2:
                    48:fc:64:a0:23:71:4f:c4:81:0e:16:83:f5:35:6d:
                    da:12:be:72:f5:2f:b5:ce:17:d6:39:c0:b8:6d:6d:
                    4b:85:e0:7f:ab:7b:54:d9:99:7d:8c:7a:cb:dd:2f:
                    4c:0c:e9:99:ce:f6:8c:21:12:71:fe:0a:39:79:03:
                    4a:b2:9c:eb:38:29:d8:55:88:f6:26:08:33:86:06:
                    98:d6:eb:3c:2a:6f:d4:9a:7d:fb:d4:af:ba:69:73:
                    8e:22:c9:63:bf:6e:e3:02:08:a5:67:83:6a:43:89:
                    50:89:19:4b:ae:19:1c:47:e5:47:80:b1:b8:44:40:
                    c8:34:5e:76:64:3a:49:38:13:f1:ce:28:42:54:6b:
                    01:4e:d0:c2:c8:97:f3:a2:ff:63:b9:59:76:94:0b:
                    73:44:03:5a:2b:18:fb:56:b4:90:75:6e:41:c8:98:
                    2b:9d:f3:0c:8c:6d:83:41:65:1c:1d:42:02:89:cd:
                    9c:9b
                Exponent: 65537 (0x10001)
        X509v3 extensions:
            X509v3 Subject Alternative Name: 
                DNS:services.test
    Signature Algorithm: sha256WithRSAEncryption
         07:ec:e9:38:7e:58:00:b1:dc:0c:67:ae:57:91:d6:f2:89:fa:
         01:c3:58:3c:58:b0:7a:29:a3:86:28:45:cd:65:c6:09:ee:cf:
         fe:ac:3b:d2:73:9d:a6:f3:3c:c4:89:5d:ba:b1:65:f5:3c:d4:
         f1:53:33:04:42:c3:8f:23:24:a0:90:5b:fd:38:f7:5b:78:1f:
         b1:df:eb:b5:25:56:71:dc:3c:db:24:57:9e:b0:48:0f:88:17:
         b3:41:0b:23:8f:57:73:29:6e:94:e2:cd:56:23:c4:49:9a:8f:
         8d:e2:d8:21:13:6d:b6:33:6b:24:e8:af:6d:f0:8f:f3:03:e3:
         4c:3f:47:8b:5d:bc:e3:5a:01:7b:2c:75:27:b5:d9:2b:cb:2e:
         70:88:3d:05:69:63:d8:19:93:c2:94:66:ea:06:0d:d1:5d:4d:
         3d:98:25:c0:52:7e:5c:0a:d4:d1:9f:99:2a:d0:03:3e:fc:6c:
         cc:ba:52:30:93:98:ed:23:e7:24:ae:32:4b:9a:1b:ca:79:d4:
         07:7d:f0:6f:4d:c3:ab:ea:d2:40:f3:b5:20:6a:7f:03:05:aa:
         f6:dc:1a:a8:87:fe:1e:8f:1e:bc:fc:ac:40:ba:34:9d:76:21:
         9a:00:bb:81:97:2a:21:2f:00:9f:14:8b:fe:92:25:b7:c0:fe:
         81:fd:be:41:1d:bd:aa:7c:aa:48:c7:ea:34:9b:09:ed:ed:46:
         c8:92:f9:ee:82:01:97:6f:90:c7:25:a5:93:50:1b:a1:83:d0:
         6e:7c:b9:4a:13:41:ab:1e:a8:a4:40:ee:6f:59:9a:c6:e6:18:
         76:36:cd:7c:07:04:3f:d5:98:90:c8:9a:3f:9a:87:ea:08:4e:
         cb:d7:05:a6:05:ef:48:a6:59:4a:2b:0e:45:ea:1b:58:55:a6:
         22:e6:d8:62:e6:4b:a8:08:ee:69:10:ae:cc:cc:86:73:8e:6d:
         d6:40:11:a4:fd:78:70:e4:45:3e:21:05:ee:72:e5:bc:85:e2:
         ad:55:e8:77:e1:9c:ec:cf:2d:59:cb:13:33:47:92:22:21:cb:
         82:a0:9d:10:dd:73:50:5c:e3:e4:48:1b:95:35:19:04:8e:ca:
         91:07:bc:99:f7:28:39:be:60:66:7a:da:16:d8:53:bc:ea:96:
         8e:8e:75:0c:0f:c3:7e:cb:e1:f4:c2:88:63:c1:e9:fc:93:96:
         7e:59:28:03:d3:93:2d:2c:7d:43:ad:7e:71:fb:a4:28:f9:87:
         b1:6b:18:2e:c3:ce:5a:e4:52:43:35:b6:e0:74:f2:9a:8e:07:
         f4:a5:0d:de:ce:1a:aa:ce:f1:22:4b:1f:5a:a5:62:d5:3b:1b:
         6e:df:e7:de:c0:60:04:48
-----BEGIN CERTIFICATE-----
MIIEAzCCAeugAwIBAgICEBkwDQYJKoZIhvcNAQELBQAwNzELMAkGA1UEBhMCR0Ix
CjAIBgNVBAgMASAxCjAIBgNVBAoMASAxEDAOBgNVBAMMB1Rlc3QgQ0EwHhcNMjQw
MjA0MDcwMDAxWhcNMjkwMjAyMDcwMDAxWjA0MQswCQYDVQQGEwJHQjENMAsGA1UE
CgwEdGVzdDEWMBQGA1UEAwwNc2VydmljZXMudGVzdDCCASIwDQYJKoZIhvcNAQEB
BQADggEPADCCAQoCggEBAJuxZOkItRTiPJiCZS5agxk6vpfjo8Ib9atlZufwlcP4
1LvuV5w6cO5EU9obim0qigftGh7tBxko69B1HHxeg2DiuLqkvD+1VTKiSPxkoCNx
T8SBDhaD9TVt2hK+cvUvtc4X1jnAuG1tS4Xgf6t7VNmZfYx6y90vTAzpmc72jCES
cf4KOXkDSrKc6zgp2FWI9iYIM4YGmNbrPCpv1Jp9+9SvumlzjiLJY79u4wIIpWeD
akOJUIkZS64ZHEflR4CxuERAyDRedmQ6STgT8c4oQlRrAU7QwsiX86L/Y7lZdpQL
c0QDWisY+1a0kHVuQciYK53zDIxtg0FlHB1CAonNnJsCAwEAAaMcMBowGAYDVR0R
BBEwD4INc2VydmljZXMudGVzdDANBgkqhkiG9w0BAQsFAAOCAgEAB+zpOH5YALHc
DGeuV5HW8on6AcNYPFiweimjhihFzWXGCe7P/qw70nOdpvM8xIldurFl9TzU8VMz
BELDjyMkoJBb/Tj3W3gfsd/rtSVWcdw82yRXnrBID4gXs0ELI49XcylulOLNViPE
SZqPjeLYIRNttjNrJOivbfCP8wPjTD9Hi12841oBeyx1J7XZK8sucIg9BWlj2BmT
wpRm6gYN0V1NPZglwFJ+XArU0Z+ZKtADPvxszLpSMJOY7SPnJK4yS5obynnUB33w
b03Dq+rSQPO1IGp/AwWq9twaqIf+Ho8evPysQLo0nXYhmgC7gZcqIS8AnxSL/pIl
t8D+gf2+QR29qnyqSMfqNJsJ7e1GyJL57oIBl2+QxyWlk1AboYPQbny5ShNBqx6o
pEDub1maxuYYdjbNfAcEP9WYkMiaP5qH6ghOy9cFpgXvSKZZSisOReobWFWmIubY
YuZLqAjuaRCuzMyGc45t1kARpP14cORFPiEF7nLlvIXirVXod+Gc7M8tWcsTM0eS
IiHLgqCdEN1zUFzj5EgblTUZBI7KkQe8mfcoOb5gZnraFthTvOqWjo51DA/Dfsvh
9MKIY8Hp/JOWflkoA9OTLSx9Q61+cfukKPmHsWsYLsPOWuRSQzW24HTymo4H9KUN
3s4aqs7xIksfWqVi1Tsbbt/n3sBgBEg=
-----END CERTIFICATE-----
