Certificate:
    Data:
        Version: 3 (0x2)
        Serial Number: 4119 (0x1017)
        Signature Algorithm: sha256WithRSAEncryption
        Issuer: C=GB, ST= , O= , CN=Test CA
        Validity
            Not Before: Feb  4 06:59:31 2024 GMT
            Not After : Feb  2 06:59:31 2029 GMT
        Subject: C=GB, ST= , O= , OU= , CN=server1.test
        Subject Public Key Info:
            Public Key Algorithm: rsaEncryption
                RSA Public-Key: (4096 bit)
                Modulus:
                    00:c1:0d:89:dc:5e:ec:44:d6:27:bb:2a:56:98:e9:
                    02:50:20:57:f7:1a:63:f7:12:19:a6:d0:85:3e:e1:
                    9d:85:40:81:a1:ed:3a:b7:3e:67:04:fe:ad:3c:9a:
                    61:c3:4a:d5:4d:a1:fd:83:a9:d6:5e:0d:d9:f9:0d:
                    da:a2:49:79:76:e0:bd:00:ec:6d:c5:49:fe:c1:af:
                    33:70:98:66:c0:09:32:e7:89:c3:5b:25:e4:56:0c:
                    e6:37:4a:59:2b:fd:64:d8:06:50:1b:6b:c4:75:f7:
                    b5:b1:55:f5:06:62:1a:fc:1c:cb:4e:dc:b7:f5:bc:
                    be:75:20:a6:bf:7f:c3:2d:d0:61:f7:e4:0b:05:38:
                    34:89:5a:4d:8d:9c:e2:06:45:5a:1c:a7:4c:50:69:
                    9a:dd:46:5a:a1:84:0a:8b:56:64:5b:56:d1:8c:f2:
                    0e:ad:18:25:ad:0b:1b:74:a4:17:ff:23:9a:00:a4:
                    22:b1:da:c4:96:8b:bb:6c:c9:1d:6d:17:72:0e:1d:
                    53:c7:6a:56:71:9f:f7:dd:12:0d:88:0b:40:63:91:
                    ca:2a:8a:03:64:c4:71:21:0c:ec:a2:49:e4:30:ea:
                    21:bd:67:00:72:2d:f7:b0:63:35:a6:aa:f0:a1:86:
                    6e:85:5f:d5:9c:ff:db:bb:99:a2:8e:65:ac:db:8c:
                    8e:5a:9b:21:3c:35:1d:89:f8:14:8c:c8:7d:58:4d:
                    36:ba:37:c8:21:4b:11:c5:c2:2e:d4:28:73:48:ec:
                    ee:19:89:1c:58:91:d0:62:bf:0f:c5:8a:59:5a:04:
                    17:eb:86:d4:e4:ec:ad:47:12:d3:74:88:04:c4:0e:
                    f9:b0:04:30:ac:4f:6e:24:e0:e3:8f:24:06:f4:cf:
                    81:71:11:08:c6:5b:85:66:6b:ba:e8:fc:9b:4f:78:
                    8f:f5:6f:b2:cd:d2:e3:e1:a6:22:ad:80:d4:8a:31:
                    1f:55:2e:25:7e:d3:1b:7e:95:49:4b:bc:ac:5b:51:
                    25:af:f0:ba:ab:20:13:56:63:f8:a7:f8:cb:45:7c:
                    dc:b8:1e:e2:09:32:51:0a:c0:59:88:fc:82:db:51:
                    02:7a:bf:89:dc:27:ed:53:d6:76:81:7c:c3:03:c8:
                    71:86:ef:1b:18:bc:36:12:6f:ab:e6:71:62:be:5e:
                    89:d9:2d:9d:c3:a0:3b:60:a1:bd:c7:58:b5:e0:a1:
                    7e:82:a8:fc:a3:51:4b:44:0a:d7:7c:42:22:7b:81:
                    91:1f:a6:a4:e7:b3:cf:82:49:af:c5:ad:b6:da:9e:
                    8e:ae:5e:e3:ee:dd:11:04:ff:57:10:e8:fe:ff:eb:
                    15:51:5f:cd:f8:30:0e:9d:c6:3b:fc:06:d6:c6:cb:
                    72:43:13
                Exponent: 65537 (0x10001)
        X509v3 extensions:
            X509v3 Subject Alternative Name: 
                DNS:server1.test
    Signature Algorithm: sha256WithRSAEncryption
         b9:5c:4d:24:7e:d2:f5:aa:cb:7c:f3:7c:d8:9c:73:6a:9a:9b:
         67:b7:10:1e:50:15:17:1d:29:85:41:5f:f5:d6:d5:60:20:7e:
         de:20:f6:49:56:e4:07:f9:9f:c5:44:e3:fa:e8:d9:14:e1:f3:
         a4:be:9f:66:89:28:40:98:fb:30:9c:5a:52:d0:5a:8c:30:3f:
         6a:a8:8b:47:37:21:f0:13:c7:77:5c:2f:a4:21:e7:63:87:c5:
         00:b6:9d:c6:43:6c:92:97:db:3e:05:d5:51:77:a0:a4:ba:8d:
         bb:03:85:a7:f0:3b:bd:f4:0f:57:f8:63:9e:b5:de:87:86:4d:
         54:74:62:f0:6c:8c:8e:1d:a6:7a:9d:01:39:b0:e1:79:2a:77:
         33:fb:75:0c:43:4d:b6:7f:a7:f8:e5:2e:b0:04:0c:05:fc:64:
         a1:2c:de:fd:c9:03:21:bb:ad:77:9a:a1:bc:dc:21:33:46:88:
         15:4c:58:13:81:44:52:56:c3:02:f7:6d:6d:31:46:3b:48:ed:
         c3:48:88:20:92:39:51:b6:92:89:35:d5:f5:8d:e6:f3:1e:7d:
         c7:17:48:77:c8:d0:03:29:8f:19:3b:6d:f7:15:30:f7:90:1e:
         8a:1b:f3:44:d6:7b:2d:97:83:71:4f:c5:79:23:aa:c6:94:b0:
         40:d3:9f:6a:d1:9f:57:49:f6:40:c5:d2:cf:ea:0a:7a:d8:1d:
         5f:0a:32:39:4c:f0:3c:62:76:ce:6a:aa:f6:d9:64:35:d1:fd:
         58:1a:5f:f6:41:cd:a5:12:58:c3:56:2a:c6:5b:a7:54:1b:66:
         31:88:0b:5d:3b:f2:69:9f:44:65:99:97:0e:34:94:ec:26:cc:
         e4:85:ac:1a:5c:a5:50:2d:90:b8:e9:81:96:6b:a5:35:6f:f1:
         5c:ce:42:62:98:62:5f:8b:ac:01:46:c8:1c:f1:86:36:df:a1:
         17:4a:7d:2b:9a:8d:60:b2:12:b8:96:17:80:59:72:d4:d7:a7:
         0c:e9:ec:d8:d6:c2:cd:99:a9:b0:d3:32:16:a2:ff:29:88:e3:
         41:21:38:03:82:59:8b:05:68:5c:77:ae:28:80:bb:1b:6b:27:
         aa:07:c4:62:67:36:72:81:eb:b2:cb:9a:83:6b:62:d0:3d:2a:
         b0:81:f1:e1:5d:5e:49:bc:31:fc:6c:dc:ba:55:fd:0b:70:ab:
         03:86:a9:1e:f3:9b:44:27:fa:57:a4:fb:80:db:c5:53:2c:a1:
         71:77:93:38:0b:6f:33:17:1b:fd:b2:b6:77:34:b6:39:fa:6e:
         bf:35:ad:7a:69:59:9b:4e:6b:b7:79:02:c1:e9:1a:cf:fc:16:
         36:b7:61:4d:84:97:83:00
-----BEGIN CERTIFICATE-----
MIIFFjCCAv6gAwIBAgICEBcwDQYJKoZIhvcNAQELBQAwNzELMAkGA1UEBhMCR0Ix
CjAIBgNVBAgMASAxCjAIBgNVBAoMASAxEDAOBgNVBAMMB1Rlc3QgQ0EwHhcNMjQw
MjA0MDY1OTMxWhcNMjkwMjAyMDY1OTMxWjBIMQswCQYDVQQGEwJHQjEKMAgGA1UE
CAwBIDEKMAgGA1UECgwBIDEKMAgGA1UECwwBIDEVMBMGA1UEAwwMc2VydmVyMS50
ZXN0MIICIjANBgkqhkiG9w0BAQEFAAOCAg8AMIICCgKCAgEAwQ2J3F7sRNYnuypW
mOkCUCBX9xpj9xIZptCFPuGdhUCBoe06tz5nBP6tPJphw0rVTaH9g6nWXg3Z+Q3a
okl5duC9AOxtxUn+wa8zcJhmwAky54nDWyXkVgzmN0pZK/1k2AZQG2vEdfe1sVX1
BmIa/BzLTty39by+dSCmv3/DLdBh9+QLBTg0iVpNjZziBkVaHKdMUGma3UZaoYQK
i1ZkW1bRjPIOrRglrQsbdKQX/yOaAKQisdrElou7bMkdbRdyDh1Tx2pWcZ/33RIN
iAtAY5HKKooDZMRxIQzsoknkMOohvWcAci33sGM1pqrwoYZuhV/VnP/bu5mijmWs
24yOWpshPDUdifgUjMh9WE02ujfIIUsRxcIu1ChzSOzuGYkcWJHQYr8PxYpZWgQX
64bU5OytRxLTdIgExA75sAQwrE9uJODjjyQG9M+BcREIxluFZmu66PybT3iP9W+y
zdLj4aYirYDUijEfVS4lftMbfpVJS7ysW1Elr/C6qyATVmP4p/jLRXzcuB7iCTJR
CsBZiPyC21ECer+J3CftU9Z2gXzDA8hxhu8bGLw2Em+r5nFivl6J2S2dw6A7YKG9
x1i14KF+gqj8o1FLRArXfEIie4GRH6ak57PPgkmvxa222p6Orl7j7t0RBP9XEOj+
/+sVUV/N+DAOncY7/AbWxstyQxMCAwEAAaMbMBkwFwYDVR0RBBAwDoIMc2VydmVy
MS50ZXN0MA0GCSqGSIb3DQEBCwUAA4ICAQC5XE0kftL1qst883zYnHNqmptntxAe
UBUXHSmFQV/11tVgIH7eIPZJVuQH+Z/FROP66NkU4fOkvp9miShAmPswnFpS0FqM
MD9qqItHNyHwE8d3XC+kIedjh8UAtp3GQ2ySl9s+BdVRd6Ckuo27A4Wn8Du99A9X
+GOetd6Hhk1UdGLwbIyOHaZ6nQE5sOF5Kncz+3UMQ022f6f45S6wBAwF/GShLN79
yQMhu613mqG83CEzRogVTFgTgURSVsMC921tMUY7SO3DSIggkjlRtpKJNdX1jebz
Hn3HF0h3yNADKY8ZO233FTD3kB6KG/NE1nstl4NxT8V5I6rGlLBA059q0Z9XSfZA
xdLP6gp62B1fCjI5TPA8YnbOaqr22WQ10f1YGl/2Qc2lEljDVirGW6dUG2YxiAtd
O/Jpn0RlmZcONJTsJszkhawaXKVQLZC46YGWa6U1b/FczkJimGJfi6wBRsgc8YY2
36EXSn0rmo1gshK4lheAWXLU16cM6ezY1sLNmamw0zIWov8piONBITgDglmLBWhc
d64ogLsbayeqB8RiZzZygeuyy5qDa2LQPSqwgfHhXV5JvDH8bNy6Vf0LcKsDhqke
85tEJ/pXpPuA28VTLKFxd5M4C28zFxv9srZ3NLY5+m6/Na16aVmbTmu3eQLB6RrP
/BY2t2FNhJeDAA==
-----END CERTIFICATE-----
