Certificate:
    Data:
        Version: 3 (0x2)
        Serial Number: 4106 (0x100a)
        Signature Algorithm: sha256WithRSAEncryption
        Issuer: C=GB, ST= , O= , CN=Test CA
        Validity
            Not Before: Nov 30 09:05:35 2022 GMT
            Not After : Nov 30 09:05:35 2023 GMT
        Subject: C=GB, O=test, CN=services.test
        Subject Public Key Info:
            Public Key Algorithm: rsaEncryption
                RSA Public-Key: (2048 bit)
                Modulus:
                    00:9b:b1:64:e9:08:b5:14:e2:3c:98:82:65:2e:5a:
                    83:19:3a:be:97:e3:a3:c2:1b:f5:ab:65:66:e7:f0:
                    95:c3:f8:d4:bb:ee:57:9c:3a:70:ee:44:53:da:1b:
                    8a:6d:2a:8a:07:ed:1a:1e:ed:07:19:28:eb:d0:75:
                    1c:7c:5e:83:60:e2:b8:ba:a4:bc:3f:b5:55:32:a2:
                    48:fc:64:a0:23:71:4f:c4:81:0e:16:83:f5:35:6d:
                    da:12:be:72:f5:2f:b5:ce:17:d6:39:c0:b8:6d:6d:
                    4b:85:e0:7f:ab:7b:54:d9:99:7d:8c:7a:cb:dd:2f:
                    4c:0c:e9:99:ce:f6:8c:21:12:71:fe:0a:39:79:03:
                    4a:b2:9c:eb:38:29:d8:55:88:f6:26:08:33:86:06:
                    98:d6:eb:3c:2a:6f:d4:9a:7d:fb:d4:af:ba:69:73:
                    8e:22:c9:63:bf:6e:e3:02:08:a5:67:83:6a:43:89:
                    50:89:19:4b:ae:19:1c:47:e5:47:80:b1:b8:44:40:
                    c8:34:5e:76:64:3a:49:38:13:f1:ce:28:42:54:6b:
                    01:4e:d0:c2:c8:97:f3:a2:ff:63:b9:59:76:94:0b:
                    73:44:03:5a:2b:18:fb:56:b4:90:75:6e:41:c8:98:
                    2b:9d:f3:0c:8c:6d:83:41:65:1c:1d:42:02:89:cd:
                    9c:9b
                Exponent: 65537 (0x10001)
        X509v3 extensions:
            X509v3 Subject Alternative Name: 
                DNS:services.test
    Signature Algorithm: sha256WithRSAEncryption
         be:39:9d:bc:05:f8:8e:a9:fd:12:b1:1e:91:78:cc:54:cf:ff:
         61:26:4b:41:52:c6:ef:47:10:35:02:43:5b:fe:05:4d:c2:cb:
         2a:78:17:d2:65:03:52:78:b4:8c:a2:12:9b:95:95:58:aa:c0:
         a8:f7:75:72:d4:9d:89:18:83:19:24:92:5f:9c:e0:35:18:49:
         a7:1c:b5:62:55:19:87:0e:22:60:cb:b2:d7:3a:b7:2f:00:16:
         fb:1d:b6:d1:e2:86:55:da:81:09:57:2c:8c:17:60:64:3a:58:
         6d:c0:dc:bf:93:87:8f:0a:b8:03:45:75:c5:f5:66:84:88:58:
         75:96:92:0b:c6:e6:a1:56:51:9e:32:c1:6b:3a:8a:f8:1d:f7:
         b9:1c:5b:a1:fd:c8:23:cc:d4:40:91:17:ed:cf:29:3d:1b:77:
         d9:df:64:0e:8c:a0:5e:64:fc:f8:05:7b:4e:f2:7a:13:e7:6a:
         c6:63:09:8a:1e:b8:3e:ce:cb:f2:fb:30:c3:98:70:12:74:61:
         a0:29:5a:95:60:af:e0:d5:64:83:28:ad:1c:7c:5a:35:98:e6:
         41:9b:0d:96:f3:84:7e:f7:aa:4f:83:0a:0f:54:ea:d8:c1:ec:
         e1:bb:88:9d:18:a3:45:32:06:da:65:f3:bb:48:a7:a0:22:0b:
         aa:9d:84:92:d1:21:fa:7f:e3:5a:dd:86:93:a1:c7:b9:6e:ec:
         0b:67:be:45:d0:a3:ba:17:24:11:e0:38:f2:a0:84:0f:24:ba:
         35:b1:3b:53:9b:3b:a4:61:f4:02:ca:4b:f1:4b:a1:4b:c4:80:
         e4:82:3b:c6:09:ba:dd:4b:5a:d4:23:80:c5:a3:f9:e6:77:9e:
         3a:05:4e:f3:17:5b:ce:70:da:77:37:b9:ed:ab:d5:bc:43:7e:
         fe:56:ad:55:4b:ca:0e:70:52:3f:b3:53:f3:78:73:a9:bb:6e:
         86:f1:6e:7d:d9:d2:e1:71:ad:9d:f9:c5:f6:b1:94:20:df:e1:
         a7:18:a7:a1:0d:9f:15:1a:e5:ef:3e:64:70:84:cf:89:5f:51:
         b6:a8:ac:d6:a8:7b:c8:49:ba:db:d2:93:4d:eb:8c:be:7b:4c:
         94:46:f4:0f:90:cc:6a:8f:be:fd:af:d6:25:1f:ea:04:d1:95:
         09:1e:df:e8:b7:e2:6b:af:63:b5:f2:4c:12:10:06:6d:a1:dd:
         a1:c8:d8:f1:1c:5a:3d:d9:b7:1a:3c:af:55:ee:f8:da:4f:39:
         1e:5c:63:2c:a5:6a:aa:ac:73:78:72:66:12:3b:18:45:ff:bd:
         2f:29:77:f8:ba:de:9d:69:4d:32:99:45:85:bf:a6:2d:d1:f1:
         dd:f5:8f:5a:f2:c8:dd:e4
-----BEGIN CERTIFICATE-----
MIIEAzCCAeugAwIBAgICEAowDQYJKoZIhvcNAQELBQAwNzELMAkGA1UEBhMCR0Ix
CjAIBgNVBAgMASAxCjAIBgNVBAoMASAxEDAOBgNVBAMMB1Rlc3QgQ0EwHhcNMjIx
MTMwMDkwNTM1WhcNMjMxMTMwMDkwNTM1WjA0MQswCQYDVQQGEwJHQjENMAsGA1UE
CgwEdGVzdDEWMBQGA1UEAwwNc2VydmljZXMudGVzdDCCASIwDQYJKoZIhvcNAQEB
BQADggEPADCCAQoCggEBAJuxZOkItRTiPJiCZS5agxk6vpfjo8Ib9atlZufwlcP4
1LvuV5w6cO5EU9obim0qigftGh7tBxko69B1HHxeg2DiuLqkvD+1VTKiSPxkoCNx
T8SBDhaD9TVt2hK+cvUvtc4X1jnAuG1tS4Xgf6t7VNmZfYx6y90vTAzpmc72jCES
cf4KOXkDSrKc6zgp2FWI9iYIM4YGmNbrPCpv1Jp9+9SvumlzjiLJY79u4wIIpWeD
akOJUIkZS64ZHEflR4CxuERAyDRedmQ6STgT8c4oQlRrAU7QwsiX86L/Y7lZdpQL
c0QDWisY+1a0kHVuQciYK53zDIxtg0FlHB1CAonNnJsCAwEAAaMcMBowGAYDVR0R
BBEwD4INc2VydmljZXMudGVzdDANBgkqhkiG9w0BAQsFAAOCAgEAvjmdvAX4jqn9
ErEekXjMVM//YSZLQVLG70cQNQJDW/4FTcLLKngX0mUDUni0jKISm5WVWKrAqPd1
ctSdiRiDGSSSX5zgNRhJpxy1YlUZhw4iYMuy1zq3LwAW+x220eKGVdqBCVcsjBdg
ZDpYbcDcv5OHjwq4A0V1xfVmhIhYdZaSC8bmoVZRnjLBazqK+B33uRxbof3II8zU
QJEX7c8pPRt32d9kDoygXmT8+AV7TvJ6E+dqxmMJih64Ps7L8vsww5hwEnRhoCla
lWCv4NVkgyitHHxaNZjmQZsNlvOEfveqT4MKD1Tq2MHs4buInRijRTIG2mXzu0in
oCILqp2EktEh+n/jWt2Gk6HHuW7sC2e+RdCjuhckEeA48qCEDyS6NbE7U5s7pGH0
AspL8UuhS8SA5II7xgm63Uta1COAxaP55neeOgVO8xdbznDadze57avVvEN+/lat
VUvKDnBSP7NT83hzqbtuhvFufdnS4XGtnfnF9rGUIN/hpxinoQ2fFRrl7z5kcITP
iV9Rtqis1qh7yEm629KTTeuMvntMlEb0D5DMao++/a/WJR/qBNGVCR7f6Lfia69j
tfJMEhAGbaHdocjY8RxaPdm3GjyvVe742k85HlxjLKVqqqxzeHJmEjsYRf+9Lyl3
+LrenWlNMplFhb+mLdHx3fWPWvLI3eQ=
-----END CERTIFICATE-----
