Certificate:
    Data:
        Version: 3 (0x2)
        Serial Number: 4099 (0x1003)
        Signature Algorithm: sha256WithRSAEncryption
        Issuer: C=GB, ST= , O= , CN=Test CA
        Validity
            Not Before: Nov 27 20:26:28 2021 GMT
            Not After : Nov 27 20:26:28 2022 GMT
        Subject: C=GB, ST= , O= , CN=server2.test
        Subject Public Key Info:
            Public Key Algorithm: rsaEncryption
                RSA Public-Key: (4096 bit)
                Modulus:
                    00:d5:87:ea:d7:7f:ea:e0:19:64:3d:07:54:c5:11:
                    e7:4b:56:5f:52:a0:03:9e:72:b2:44:a2:22:fc:4d:
                    e5:11:36:db:33:5a:02:21:be:eb:af:2c:c1:31:9f:
                    5d:f9:2a:65:ac:5c:89:f2:4f:0e:45:b0:85:92:91:
                    44:50:9b:0d:f7:8b:5f:12:39:52:bb:c7:ea:1b:d1:
                    c0:c7:86:c3:0f:d4:e7:3e:38:81:1f:24:b9:94:d0:
                    bb:5e:74:5b:a7:1a:c4:5f:d8:8d:b4:96:ac:44:22:
                    ff:05:02:83:16:53:b7:50:5d:c5:d1:e9:56:73:ef:
                    d5:f3:01:2a:63:f5:ca:d2:89:6b:e5:4f:2a:26:d4:
                    64:e6:2d:89:f4:38:7a:27:ba:fc:c5:20:a3:33:fe:
                    10:7e:91:29:4a:24:c2:29:ec:8d:5a:cf:83:fe:90:
                    85:24:f8:0b:b9:01:11:94:b9:e1:af:db:e9:c1:6c:
                    5d:91:38:8d:92:ed:e9:74:a1:08:fe:27:ae:97:06:
                    c8:39:85:cb:fe:13:dd:ba:f0:e5:87:f1:ef:f2:b7:
                    e6:03:3a:fe:c5:23:53:3d:74:52:ef:ab:0f:4f:cf:
                    44:67:bb:2c:a7:d4:94:f0:4c:54:74:48:1c:d1:ab:
                    a2:c3:e3:49:29:ff:e5:9c:55:1b:ca:ee:59:47:7c:
                    2a:9d:4c:6b:48:9e:ce:98:fb:2f:85:3d:8c:1f:57:
                    2b:87:20:30:d0:13:17:19:69:35:df:c3:1b:37:d4:
                    91:2c:c9:2c:db:76:35:61:34:08:ee:8b:f0:ae:96:
                    db:e3:81:7c:c1:45:6c:cd:83:25:f9:d4:f4:00:99:
                    83:70:49:d9:d1:90:24:91:68:03:4c:85:cb:98:f7:
                    fc:51:9b:a0:4d:b5:f4:57:7b:72:cf:81:4d:a9:44:
                    67:28:85:08:04:17:87:88:71:6a:4a:b0:b8:6e:8a:
                    20:e7:70:c6:68:57:d2:df:02:86:a0:86:56:0d:d6:
                    bd:6d:37:1f:ee:ea:d1:c2:20:97:8b:f3:e7:39:0f:
                    e7:a4:8c:6f:52:4e:3f:4b:08:04:5b:14:a7:ba:ff:
                    c9:2a:17:83:48:94:b1:58:34:47:e8:b6:a2:f2:db:
                    21:e2:f9:86:09:5d:d0:e2:c6:cd:0e:b0:35:a2:89:
                    c0:06:7d:af:65:83:6d:92:82:b2:d6:dc:95:4f:ba:
                    80:f8:c1:b7:ea:40:1e:c2:6c:2d:1c:32:e5:65:b8:
                    5e:2b:b2:5e:4e:1d:48:4f:42:3b:c1:b2:83:1e:4c:
                    5f:90:c0:25:9d:e0:86:c1:c5:1c:ee:68:c5:c0:80:
                    cd:e1:c4:40:5f:70:5f:52:46:60:d1:69:9e:c1:02:
                    5e:a6:4d
                Exponent: 65537 (0x10001)
        X509v3 extensions:
            X509v3 Subject Alternative Name: 
                DNS:server2.test
    Signature Algorithm: sha256WithRSAEncryption
         b4:5b:cf:1f:7e:e1:e6:fd:39:d0:c7:33:cf:e6:a0:d6:72:d8:
         40:6d:dd:5e:fe:c1:d5:47:6e:11:93:12:de:94:5f:2e:23:59:
         29:4d:9f:e0:2f:17:a6:ee:92:6c:c2:65:f0:a0:ba:03:08:b8:
         9c:06:4e:23:16:fa:d9:d5:e0:25:54:dc:70:fc:bc:de:24:22:
         83:23:d4:ec:1e:b5:57:5f:ba:f4:90:21:23:72:59:cc:17:54:
         d7:26:66:83:08:92:2c:8d:aa:ad:9f:7e:18:c9:76:db:44:58:
         aa:cd:7c:0a:99:8a:8b:f3:72:71:16:34:76:37:9e:0d:29:73:
         f0:4a:6c:78:b4:af:cd:ff:cf:a5:48:15:36:4f:40:ac:fd:d4:
         41:d5:e3:bf:d7:46:09:ee:29:9c:f5:4a:5a:06:dc:88:cf:0d:
         5b:86:fc:35:8d:1f:23:f0:28:e0:cd:ce:f6:43:88:5d:3f:ff:
         13:28:5d:12:69:56:19:8f:ee:35:25:17:95:ae:4a:9f:ad:ba:
         11:20:e2:9a:44:a5:80:75:f5:ba:a9:eb:b5:9c:25:23:61:84:
         a6:6b:a4:32:23:02:13:17:0b:ac:84:75:17:48:cf:ee:75:42:
         07:58:b7:56:1b:45:fb:29:af:45:49:61:5d:8b:6d:b6:97:8c:
         3a:d0:d5:4f:be:b3:1e:18:23:36:01:c7:e6:17:87:bd:46:b2:
         dc:e0:ce:9d:31:25:66:b9:8d:57:8d:d3:75:6f:5b:a6:97:f3:
         cf:cd:3a:cf:65:87:78:dd:f4:5c:5a:42:ce:ab:6b:ad:74:63:
         26:1e:fe:58:7a:59:76:6d:50:a2:42:cf:ee:06:af:28:c6:5c:
         a2:64:2a:45:91:73:8e:ae:00:17:ea:5e:04:5e:5e:9d:42:ed:
         70:cf:38:ce:e1:2b:bc:0b:2d:4b:37:1d:c3:a3:cb:f3:71:be:
         47:16:48:2d:58:37:51:44:d2:91:78:5f:cb:e9:a7:b7:e6:46:
         dc:19:d2:b7:43:49:c2:34:e6:00:50:1b:5b:61:77:91:08:a2:
         24:60:e4:69:1c:58:ba:82:2d:38:7b:bb:b2:75:dd:3e:76:7f:
         dd:29:2c:69:61:e8:fd:b3:2b:38:47:1c:a0:64:0f:d1:b1:47:
         4f:32:d0:99:f9:2f:55:63:7c:b2:b3:fc:51:33:c4:00:c1:fb:
         d7:77:31:0d:5d:db:45:3f:55:df:53:bc:17:88:f9:59:b8:ad:
         7d:30:84:d7:84:7d:e4:ce:54:59:d4:00:85:29:26:07:dc:e1:
         12:0e:a6:ef:25:19:78:8e:3a:aa:f5:69:77:f1:d3:7d:05:a8:
         ff:c8:d8:59:88:b2:80:48
-----BEGIN CERTIFICATE-----
MIIFCjCCAvKgAwIBAgICEAMwDQYJKoZIhvcNAQELBQAwNzELMAkGA1UEBhMCR0Ix
CjAIBgNVBAgMASAxCjAIBgNVBAoMASAxEDAOBgNVBAMMB1Rlc3QgQ0EwHhcNMjEx
MTI3MjAyNjI4WhcNMjIxMTI3MjAyNjI4WjA8MQswCQYDVQQGEwJHQjEKMAgGA1UE
CAwBIDEKMAgGA1UECgwBIDEVMBMGA1UEAwwMc2VydmVyMi50ZXN0MIICIjANBgkq
hkiG9w0BAQEFAAOCAg8AMIICCgKCAgEA1Yfq13/q4BlkPQdUxRHnS1ZfUqADnnKy
RKIi/E3lETbbM1oCIb7rryzBMZ9d+SplrFyJ8k8ORbCFkpFEUJsN94tfEjlSu8fq
G9HAx4bDD9TnPjiBHyS5lNC7XnRbpxrEX9iNtJasRCL/BQKDFlO3UF3F0elWc+/V
8wEqY/XK0olr5U8qJtRk5i2J9Dh6J7r8xSCjM/4QfpEpSiTCKeyNWs+D/pCFJPgL
uQERlLnhr9vpwWxdkTiNku3pdKEI/ieulwbIOYXL/hPduvDlh/Hv8rfmAzr+xSNT
PXRS76sPT89EZ7ssp9SU8ExUdEgc0auiw+NJKf/lnFUbyu5ZR3wqnUxrSJ7OmPsv
hT2MH1crhyAw0BMXGWk138MbN9SRLMks23Y1YTQI7ovwrpbb44F8wUVszYMl+dT0
AJmDcEnZ0ZAkkWgDTIXLmPf8UZugTbX0V3tyz4FNqURnKIUIBBeHiHFqSrC4boog
53DGaFfS3wKGoIZWDda9bTcf7urRwiCXi/PnOQ/npIxvUk4/SwgEWxSnuv/JKheD
SJSxWDRH6Lai8tsh4vmGCV3Q4sbNDrA1oonABn2vZYNtkoKy1tyVT7qA+MG36kAe
wmwtHDLlZbheK7JeTh1IT0I7wbKDHkxfkMAlneCGwcUc7mjFwIDN4cRAX3BfUkZg
0WmewQJepk0CAwEAAaMbMBkwFwYDVR0RBBAwDoIMc2VydmVyMi50ZXN0MA0GCSqG
SIb3DQEBCwUAA4ICAQC0W88ffuHm/TnQxzPP5qDWcthAbd1e/sHVR24RkxLelF8u
I1kpTZ/gLxem7pJswmXwoLoDCLicBk4jFvrZ1eAlVNxw/LzeJCKDI9TsHrVXX7r0
kCEjclnMF1TXJmaDCJIsjaqtn34YyXbbRFiqzXwKmYqL83JxFjR2N54NKXPwSmx4
tK/N/8+lSBU2T0Cs/dRB1eO/10YJ7imc9UpaBtyIzw1bhvw1jR8j8Cjgzc72Q4hd
P/8TKF0SaVYZj+41JReVrkqfrboRIOKaRKWAdfW6qeu1nCUjYYSma6QyIwITFwus
hHUXSM/udUIHWLdWG0X7Ka9FSWFdi222l4w60NVPvrMeGCM2AcfmF4e9RrLc4M6d
MSVmuY1XjdN1b1uml/PPzTrPZYd43fRcWkLOq2utdGMmHv5Yell2bVCiQs/uBq8o
xlyiZCpFkXOOrgAX6l4EXl6dQu1wzzjO4Su8Cy1LNx3Do8vzcb5HFkgtWDdRRNKR
eF/L6ae35kbcGdK3Q0nCNOYAUBtbYXeRCKIkYORpHFi6gi04e7uydd0+dn/dKSxp
Yej9sys4RxygZA/RsUdPMtCZ+S9VY3yys/xRM8QAwfvXdzENXdtFP1XfU7wXiPlZ
uK19MITXhH3kzlRZ1ACFKSYH3OESDqbvJRl4jjqq9Wl38dN9Baj/yNhZiLKASA==
-----END CERTIFICATE-----
