Certificate:
    Data:
        Version: 3 (0x2)
        Serial Number: 4107 (0x100b)
        Signature Algorithm: sha256WithRSAEncryption
        Issuer: C=GB, ST= , O= , CN=Test CA
        Validity
            Not Before: Dec  1 15:12:43 2022 GMT
            Not After : Dec  1 15:12:43 2023 GMT
        Subject: C=GB, ST= , O= , OU= , CN=server1.test
        Subject Public Key Info:
            Public Key Algorithm: rsaEncryption
                RSA Public-Key: (4096 bit)
                Modulus:
                    00:c1:0d:89:dc:5e:ec:44:d6:27:bb:2a:56:98:e9:
                    02:50:20:57:f7:1a:63:f7:12:19:a6:d0:85:3e:e1:
                    9d:85:40:81:a1:ed:3a:b7:3e:67:04:fe:ad:3c:9a:
                    61:c3:4a:d5:4d:a1:fd:83:a9:d6:5e:0d:d9:f9:0d:
                    da:a2:49:79:76:e0:bd:00:ec:6d:c5:49:fe:c1:af:
                    33:70:98:66:c0:09:32:e7:89:c3:5b:25:e4:56:0c:
                    e6:37:4a:59:2b:fd:64:d8:06:50:1b:6b:c4:75:f7:
                    b5:b1:55:f5:06:62:1a:fc:1c:cb:4e:dc:b7:f5:bc:
                    be:75:20:a6:bf:7f:c3:2d:d0:61:f7:e4:0b:05:38:
                    34:89:5a:4d:8d:9c:e2:06:45:5a:1c:a7:4c:50:69:
                    9a:dd:46:5a:a1:84:0a:8b:56:64:5b:56:d1:8c:f2:
                    0e:ad:18:25:ad:0b:1b:74:a4:17:ff:23:9a:00:a4:
                    22:b1:da:c4:96:8b:bb:6c:c9:1d:6d:17:72:0e:1d:
                    53:c7:6a:56:71:9f:f7:dd:12:0d:88:0b:40:63:91:
                    ca:2a:8a:03:64:c4:71:21:0c:ec:a2:49:e4:30:ea:
                    21:bd:67:00:72:2d:f7:b0:63:35:a6:aa:f0:a1:86:
                    6e:85:5f:d5:9c:ff:db:bb:99:a2:8e:65:ac:db:8c:
                    8e:5a:9b:21:3c:35:1d:89:f8:14:8c:c8:7d:58:4d:
                    36:ba:37:c8:21:4b:11:c5:c2:2e:d4:28:73:48:ec:
                    ee:19:89:1c:58:91:d0:62:bf:0f:c5:8a:59:5a:04:
                    17:eb:86:d4:e4:ec:ad:47:12:d3:74:88:04:c4:0e:
                    f9:b0:04:30:ac:4f:6e:24:e0:e3:8f:24:06:f4:cf:
                    81:71:11:08:c6:5b:85:66:6b:ba:e8:fc:9b:4f:78:
                    8f:f5:6f:b2:cd:d2:e3:e1:a6:22:ad:80:d4:8a:31:
                    1f:55:2e:25:7e:d3:1b:7e:95:49:4b:bc:ac:5b:51:
                    25:af:f0:ba:ab:20:13:56:63:f8:a7:f8:cb:45:7c:
                    dc:b8:1e:e2:09:32:51:0a:c0:59:88:fc:82:db:51:
                    02:7a:bf:89:dc:27:ed:53:d6:76:81:7c:c3:03:c8:
                    71:86:ef:1b:18:bc:36:12:6f:ab:e6:71:62:be:5e:
                    89:d9:2d:9d:c3:a0:3b:60:a1:bd:c7:58:b5:e0:a1:
                    7e:82:a8:fc:a3:51:4b:44:0a:d7:7c:42:22:7b:81:
                    91:1f:a6:a4:e7:b3:cf:82:49:af:c5:ad:b6:da:9e:
                    8e:ae:5e:e3:ee:dd:11:04:ff:57:10:e8:fe:ff:eb:
                    15:51:5f:cd:f8:30:0e:9d:c6:3b:fc:06:d6:c6:cb:
                    72:43:13
                Exponent: 65537 (0x10001)
        X509v3 extensions:
            X509v3 Subject Alternative Name: 
                DNS:server1.test
    Signature Algorithm: sha256WithRSAEncryption
         10:23:e6:d1:a6:5c:0f:82:9e:26:53:24:b6:21:a6:b4:9d:e6:
         6d:6d:6b:88:fb:5a:25:ef:c9:46:9d:7e:96:cb:7d:bb:f1:79:
         38:5f:98:ae:09:9f:78:a3:20:4f:2a:8e:68:38:f0:e9:38:d2:
         21:2e:49:ec:92:cc:de:4f:5d:ac:bc:3c:bf:0b:d7:62:28:3c:
         98:a6:06:1b:fc:88:05:f1:25:e4:50:2b:a4:f0:d0:02:ce:1c:
         75:d7:a1:8e:68:a1:a3:1c:85:b4:cf:de:db:59:83:fd:e9:54:
         4a:1e:97:b3:e8:1a:78:13:5d:22:84:92:22:9a:1e:fb:d2:49:
         6d:5d:a5:a4:10:4b:f8:51:aa:38:59:37:38:6a:09:01:20:f8:
         68:03:e9:1d:5e:8f:84:65:20:4b:e5:02:c6:24:cd:28:5d:c9:
         a9:dc:87:db:f7:83:c9:34:ec:ef:f5:27:72:23:21:4f:03:dd:
         a9:38:5a:be:08:86:bc:2a:29:bc:27:46:60:dd:a3:cf:98:d4:
         16:0f:df:9b:42:ea:8e:97:10:53:9b:1c:28:f3:ba:5e:87:81:
         ce:3f:2e:01:2c:17:13:55:ca:d0:85:20:e7:71:19:18:0b:37:
         ba:f8:26:56:ce:40:3d:19:43:bd:6e:19:34:26:5c:d6:c8:52:
         19:56:ee:ec:96:49:a8:3a:3f:c8:fc:2f:6f:85:1f:aa:71:0a:
         fa:13:e9:17:2e:4d:bc:9c:c2:75:b9:7e:d4:b2:92:2b:3d:35:
         94:92:54:fd:e9:40:7c:bd:1c:bb:2f:6e:d0:31:d6:d1:ec:13:
         16:d4:53:70:15:a5:d9:86:10:e5:50:0e:84:97:03:d8:0b:f4:
         b6:a0:f4:b0:0e:0c:54:92:11:88:28:4e:b0:89:fa:43:06:22:
         18:93:81:5c:4e:9d:84:a3:b9:4b:fb:05:86:e5:24:d8:0b:ae:
         49:1f:ca:89:d0:c4:9d:0c:d0:08:af:88:dc:e0:5b:00:54:bc:
         59:7d:21:97:f4:02:b6:2d:5f:57:b9:b7:e3:b5:0a:b2:dd:90:
         e6:3f:47:f8:38:83:09:09:a4:7e:f2:3b:7c:9f:09:a5:b9:d1:
         03:aa:17:73:b1:ca:76:0b:fd:f7:04:c3:5a:a6:00:85:1a:fe:
         7f:97:b5:1f:a4:c6:cf:3d:7c:07:18:73:18:0c:6f:77:4b:51:
         28:b5:b9:19:67:1f:98:7f:9e:1c:09:60:db:80:33:53:14:24:
         d7:39:01:fb:db:9a:06:82:b2:d1:7c:38:39:62:64:b7:d0:d8:
         35:de:75:30:01:98:44:ca:69:86:4e:39:64:29:68:83:50:10:
         1c:4e:f5:d1:53:c3:63:7d
-----BEGIN CERTIFICATE-----
MIIFFjCCAv6gAwIBAgICEAswDQYJKoZIhvcNAQELBQAwNzELMAkGA1UEBhMCR0Ix
CjAIBgNVBAgMASAxCjAIBgNVBAoMASAxEDAOBgNVBAMMB1Rlc3QgQ0EwHhcNMjIx
MjAxMTUxMjQzWhcNMjMxMjAxMTUxMjQzWjBIMQswCQYDVQQGEwJHQjEKMAgGA1UE
CAwBIDEKMAgGA1UECgwBIDEKMAgGA1UECwwBIDEVMBMGA1UEAwwMc2VydmVyMS50
ZXN0MIICIjANBgkqhkiG9w0BAQEFAAOCAg8AMIICCgKCAgEAwQ2J3F7sRNYnuypW
mOkCUCBX9xpj9xIZptCFPuGdhUCBoe06tz5nBP6tPJphw0rVTaH9g6nWXg3Z+Q3a
okl5duC9AOxtxUn+wa8zcJhmwAky54nDWyXkVgzmN0pZK/1k2AZQG2vEdfe1sVX1
BmIa/BzLTty39by+dSCmv3/DLdBh9+QLBTg0iVpNjZziBkVaHKdMUGma3UZaoYQK
i1ZkW1bRjPIOrRglrQsbdKQX/yOaAKQisdrElou7bMkdbRdyDh1Tx2pWcZ/33RIN
iAtAY5HKKooDZMRxIQzsoknkMOohvWcAci33sGM1pqrwoYZuhV/VnP/bu5mijmWs
24yOWpshPDUdifgUjMh9WE02ujfIIUsRxcIu1ChzSOzuGYkcWJHQYr8PxYpZWgQX
64bU5OytRxLTdIgExA75sAQwrE9uJODjjyQG9M+BcREIxluFZmu66PybT3iP9W+y
zdLj4aYirYDUijEfVS4lftMbfpVJS7ysW1Elr/C6qyATVmP4p/jLRXzcuB7iCTJR
CsBZiPyC21ECer+J3CftU9Z2gXzDA8hxhu8bGLw2Em+r5nFivl6J2S2dw6A7YKG9
x1i14KF+gqj8o1FLRArXfEIie4GRH6ak57PPgkmvxa222p6Orl7j7t0RBP9XEOj+
/+sVUV/N+DAOncY7/AbWxstyQxMCAwEAAaMbMBkwFwYDVR0RBBAwDoIMc2VydmVy
MS50ZXN0MA0GCSqGSIb3DQEBCwUAA4ICAQAQI+bRplwPgp4mUyS2Iaa0neZtbWuI
+1ol78lGnX6Wy3278Xk4X5iuCZ94oyBPKo5oOPDpONIhLknskszeT12svDy/C9di
KDyYpgYb/IgF8SXkUCuk8NACzhx116GOaKGjHIW0z97bWYP96VRKHpez6Bp4E10i
hJIimh770kltXaWkEEv4Uao4WTc4agkBIPhoA+kdXo+EZSBL5QLGJM0oXcmp3Ifb
94PJNOzv9SdyIyFPA92pOFq+CIa8Kim8J0Zg3aPPmNQWD9+bQuqOlxBTmxwo87pe
h4HOPy4BLBcTVcrQhSDncRkYCze6+CZWzkA9GUO9bhk0JlzWyFIZVu7slkmoOj/I
/C9vhR+qcQr6E+kXLk28nMJ1uX7UspIrPTWUklT96UB8vRy7L27QMdbR7BMW1FNw
FaXZhhDlUA6ElwPYC/S2oPSwDgxUkhGIKE6wifpDBiIYk4FcTp2Eo7lL+wWG5STY
C65JH8qJ0MSdDNAIr4jc4FsAVLxZfSGX9AK2LV9XubfjtQqy3ZDmP0f4OIMJCaR+
8jt8nwmludEDqhdzscp2C/33BMNapgCFGv5/l7UfpMbPPXwHGHMYDG93S1EotbkZ
Zx+Yf54cCWDbgDNTFCTXOQH725oGgrLRfDg5YmS30Ng13nUwAZhEymmGTjlkKWiD
UBAcTvXRU8NjfQ==
-----END CERTIFICATE-----
