Certificate:
    Data:
        Version: 3 (0x2)
        Serial Number: 4120 (0x1018)
        Signature Algorithm: sha256WithRSAEncryption
        Issuer: C=GB, ST= , O= , CN=Test CA
        Validity
            Not Before: Feb  4 06:59:47 2024 GMT
            Not After : Feb  2 06:59:47 2029 GMT
        Subject: C=GB, ST= , O= , CN=server2.test
        Subject Public Key Info:
            Public Key Algorithm: rsaEncryption
                RSA Public-Key: (4096 bit)
                Modulus:
                    00:d5:87:ea:d7:7f:ea:e0:19:64:3d:07:54:c5:11:
                    e7:4b:56:5f:52:a0:03:9e:72:b2:44:a2:22:fc:4d:
                    e5:11:36:db:33:5a:02:21:be:eb:af:2c:c1:31:9f:
                    5d:f9:2a:65:ac:5c:89:f2:4f:0e:45:b0:85:92:91:
                    44:50:9b:0d:f7:8b:5f:12:39:52:bb:c7:ea:1b:d1:
                    c0:c7:86:c3:0f:d4:e7:3e:38:81:1f:24:b9:94:d0:
                    bb:5e:74:5b:a7:1a:c4:5f:d8:8d:b4:96:ac:44:22:
                    ff:05:02:83:16:53:b7:50:5d:c5:d1:e9:56:73:ef:
                    d5:f3:01:2a:63:f5:ca:d2:89:6b:e5:4f:2a:26:d4:
                    64:e6:2d:89:f4:38:7a:27:ba:fc:c5:20:a3:33:fe:
                    10:7e:91:29:4a:24:c2:29:ec:8d:5a:cf:83:fe:90:
                    85:24:f8:0b:b9:01:11:94:b9:e1:af:db:e9:c1:6c:
                    5d:91:38:8d:92:ed:e9:74:a1:08:fe:27:ae:97:06:
                    c8:39:85:cb:fe:13:dd:ba:f0:e5:87:f1:ef:f2:b7:
                    e6:03:3a:fe:c5:23:53:3d:74:52:ef:ab:0f:4f:cf:
                    44:67:bb:2c:a7:d4:94:f0:4c:54:74:48:1c:d1:ab:
                    a2:c3:e3:49:29:ff:e5:9c:55:1b:ca:ee:59:47:7c:
                    2a:9d:4c:6b:48:9e:ce:98:fb:2f:85:3d:8c:1f:57:
                    2b:87:20:30:d0:13:17:19:69:35:df:c3:1b:37:d4:
                    91:2c:c9:2c:db:76:35:61:34:08:ee:8b:f0:ae:96:
                    db:e3:81:7c:c1:45:6c:cd:83:25:f9:d4:f4:00:99:
                    83:70:49:d9:d1:90:24:91:68:03:4c:85:cb:98:f7:
                    fc:51:9b:a0:4d:b5:f4:57:7b:72:cf:81:4d:a9:44:
                    67:28:85:08:04:17:87:88:71:6a:4a:b0:b8:6e:8a:
                    20:e7:70:c6:68:57:d2:df:02:86:a0:86:56:0d:d6:
                    bd:6d:37:1f:ee:ea:d1:c2:20:97:8b:f3:e7:39:0f:
                    e7:a4:8c:6f:52:4e:3f:4b:08:04:5b:14:a7:ba:ff:
                    c9:2a:17:83:48:94:b1:58:34:47:e8:b6:a2:f2:db:
                    21:e2:f9:86:09:5d:d0:e2:c6:cd:0e:b0:35:a2:89:
                    c0:06:7d:af:65:83:6d:92:82:b2:d6:dc:95:4f:ba:
                    80:f8:c1:b7:ea:40:1e:c2:6c:2d:1c:32:e5:65:b8:
                    5e:2b:b2:5e:4e:1d:48:4f:42:3b:c1:b2:83:1e:4c:
                    5f:90:c0:25:9d:e0:86:c1:c5:1c:ee:68:c5:c0:80:
                    cd:e1:c4:40:5f:70:5f:52:46:60:d1:69:9e:c1:02:
                    5e:a6:4d
                Exponent: 65537 (0x10001)
        X509v3 extensions:
            X509v3 Subject Alternative Name: 
                DNS:server2.test
    Signature Algorithm: sha256WithRSAEncryption
         13:95:65:9f:ca:70:a6:6d:f1:03:c2:45:4e:fa:6e:36:5a:b0:
         23:28:6e:7f:b3:80:0b:c2:88:df:87:9b:fd:84:80:44:9e:19:
         6a:5e:80:74:06:eb:83:ca:87:d3:8e:f3:22:f7:1d:eb:da:5d:
         0e:11:92:f0:38:ed:05:a6:25:a1:ca:80:31:63:cd:db:82:11:
         f7:48:0f:3a:19:c0:66:0b:59:07:8f:65:10:cb:ad:be:ab:cf:
         fe:2d:5f:84:9f:a8:f5:b1:2e:7b:06:b8:83:dc:25:ac:e1:91:
         24:4d:1b:09:4f:d7:7f:7d:4f:9e:5a:41:b9:fc:df:85:ce:93:
         09:db:38:39:14:10:50:73:39:11:8e:18:f6:6b:58:a7:58:fd:
         45:ed:d7:b9:7e:92:be:23:80:68:34:cf:e0:44:ee:03:43:a4:
         14:50:2d:03:94:8d:1f:3e:48:5e:59:45:1f:d0:46:a9:34:91:
         39:7d:98:7c:eb:a5:d1:fa:a3:c6:bb:bd:cd:2c:c1:60:6a:20:
         b4:cc:6a:e6:2e:60:59:31:ca:f1:17:e1:54:5d:64:43:ce:ec:
         77:2b:52:35:5e:8b:e8:52:da:93:0e:05:fe:5b:d7:0c:d8:b0:
         61:67:1d:21:c8:41:4a:a6:42:38:34:15:44:bf:30:2f:cb:1a:
         56:96:c8:0a:21:a0:86:7e:c2:62:8f:0a:2c:72:80:a4:b5:81:
         52:46:4e:3f:01:01:97:52:2d:44:0c:ec:9c:4e:2e:a6:34:71:
         89:c5:86:b7:3c:7e:1a:61:49:ac:d2:01:d8:69:64:55:17:c5:
         e1:6b:88:ca:cc:f4:56:a3:1a:5f:21:e0:8a:95:fe:92:1b:bd:
         23:29:a2:fa:90:14:45:36:2a:5d:ea:68:93:d9:0b:5d:69:cc:
         2d:75:c4:ec:46:fb:bc:8d:36:58:6f:49:1f:34:4a:c7:0d:da:
         ed:40:8a:f5:d9:4c:1e:90:03:52:d6:22:7e:19:a5:95:1a:c7:
         2e:79:bc:85:c3:e0:cf:40:67:b8:95:44:5a:30:b3:21:09:d6:
         4c:98:6c:b4:70:60:a8:52:56:29:39:81:6b:e7:eb:c7:90:fd:
         a9:a1:f1:5c:b8:3c:28:d3:ec:3a:66:2e:86:de:6a:41:67:83:
         1c:9e:55:c5:20:c3:d9:70:1d:e7:2c:7a:ba:8d:82:75:5b:d5:
         a9:fb:8d:bc:64:ef:32:03:0d:31:0a:5d:08:45:bd:22:94:a8:
         0b:ab:13:38:e1:b2:9a:fc:35:78:d0:4b:ea:c8:9e:d6:99:c8:
         c5:ec:25:bb:d0:88:1d:97:c3:f1:d8:9a:fb:df:31:27:b4:d1:
         b1:9a:1a:64:d6:6b:c6:9a
-----BEGIN CERTIFICATE-----
MIIFCjCCAvKgAwIBAgICEBgwDQYJKoZIhvcNAQELBQAwNzELMAkGA1UEBhMCR0Ix
CjAIBgNVBAgMASAxCjAIBgNVBAoMASAxEDAOBgNVBAMMB1Rlc3QgQ0EwHhcNMjQw
MjA0MDY1OTQ3WhcNMjkwMjAyMDY1OTQ3WjA8MQswCQYDVQQGEwJHQjEKMAgGA1UE
CAwBIDEKMAgGA1UECgwBIDEVMBMGA1UEAwwMc2VydmVyMi50ZXN0MIICIjANBgkq
hkiG9w0BAQEFAAOCAg8AMIICCgKCAgEA1Yfq13/q4BlkPQdUxRHnS1ZfUqADnnKy
RKIi/E3lETbbM1oCIb7rryzBMZ9d+SplrFyJ8k8ORbCFkpFEUJsN94tfEjlSu8fq
G9HAx4bDD9TnPjiBHyS5lNC7XnRbpxrEX9iNtJasRCL/BQKDFlO3UF3F0elWc+/V
8wEqY/XK0olr5U8qJtRk5i2J9Dh6J7r8xSCjM/4QfpEpSiTCKeyNWs+D/pCFJPgL
uQERlLnhr9vpwWxdkTiNku3pdKEI/ieulwbIOYXL/hPduvDlh/Hv8rfmAzr+xSNT
PXRS76sPT89EZ7ssp9SU8ExUdEgc0auiw+NJKf/lnFUbyu5ZR3wqnUxrSJ7OmPsv
hT2MH1crhyAw0BMXGWk138MbN9SRLMks23Y1YTQI7ovwrpbb44F8wUVszYMl+dT0
AJmDcEnZ0ZAkkWgDTIXLmPf8UZugTbX0V3tyz4FNqURnKIUIBBeHiHFqSrC4boog
53DGaFfS3wKGoIZWDda9bTcf7urRwiCXi/PnOQ/npIxvUk4/SwgEWxSnuv/JKheD
SJSxWDRH6Lai8tsh4vmGCV3Q4sbNDrA1oonABn2vZYNtkoKy1tyVT7qA+MG36kAe
wmwtHDLlZbheK7JeTh1IT0I7wbKDHkxfkMAlneCGwcUc7mjFwIDN4cRAX3BfUkZg
0WmewQJepk0CAwEAAaMbMBkwFwYDVR0RBBAwDoIMc2VydmVyMi50ZXN0MA0GCSqG
SIb3DQEBCwUAA4ICAQATlWWfynCmbfEDwkVO+m42WrAjKG5/s4ALwojfh5v9hIBE
nhlqXoB0BuuDyofTjvMi9x3r2l0OEZLwOO0FpiWhyoAxY83bghH3SA86GcBmC1kH
j2UQy62+q8/+LV+En6j1sS57BriD3CWs4ZEkTRsJT9d/fU+eWkG5/N+FzpMJ2zg5
FBBQczkRjhj2a1inWP1F7de5fpK+I4BoNM/gRO4DQ6QUUC0DlI0fPkheWUUf0Eap
NJE5fZh866XR+qPGu73NLMFgaiC0zGrmLmBZMcrxF+FUXWRDzux3K1I1XovoUtqT
DgX+W9cM2LBhZx0hyEFKpkI4NBVEvzAvyxpWlsgKIaCGfsJijwoscoCktYFSRk4/
AQGXUi1EDOycTi6mNHGJxYa3PH4aYUms0gHYaWRVF8Xha4jKzPRWoxpfIeCKlf6S
G70jKaL6kBRFNipd6miT2QtdacwtdcTsRvu8jTZYb0kfNErHDdrtQIr12UwekANS
1iJ+GaWVGscuebyFw+DPQGe4lURaMLMhCdZMmGy0cGCoUlYpOYFr5+vHkP2pofFc
uDwo0+w6Zi6G3mpBZ4McnlXFIMPZcB3nLHq6jYJ1W9Wp+428ZO8yAw0xCl0IRb0i
lKgLqxM44bKa/DV40EvqyJ7WmcjF7CW70Igdl8Px2Jr73zEntNGxmhpk1mvGmg==
-----END CERTIFICATE-----
