Certificate:
    Data:
        Version: 3 (0x2)
        Serial Number: 4098 (0x1002)
        Signature Algorithm: sha256WithRSAEncryption
        Issuer: C=GB, ST= , O= , CN=Test CA
        Validity
            Not Before: Nov 27 20:26:14 2021 GMT
            Not After : Nov 27 20:26:14 2022 GMT
        Subject: C=GB, ST= , O= , OU= , CN=server1.test
        Subject Public Key Info:
            Public Key Algorithm: rsaEncryption
                RSA Public-Key: (4096 bit)
                Modulus:
                    00:c1:0d:89:dc:5e:ec:44:d6:27:bb:2a:56:98:e9:
                    02:50:20:57:f7:1a:63:f7:12:19:a6:d0:85:3e:e1:
                    9d:85:40:81:a1:ed:3a:b7:3e:67:04:fe:ad:3c:9a:
                    61:c3:4a:d5:4d:a1:fd:83:a9:d6:5e:0d:d9:f9:0d:
                    da:a2:49:79:76:e0:bd:00:ec:6d:c5:49:fe:c1:af:
                    33:70:98:66:c0:09:32:e7:89:c3:5b:25:e4:56:0c:
                    e6:37:4a:59:2b:fd:64:d8:06:50:1b:6b:c4:75:f7:
                    b5:b1:55:f5:06:62:1a:fc:1c:cb:4e:dc:b7:f5:bc:
                    be:75:20:a6:bf:7f:c3:2d:d0:61:f7:e4:0b:05:38:
                    34:89:5a:4d:8d:9c:e2:06:45:5a:1c:a7:4c:50:69:
                    9a:dd:46:5a:a1:84:0a:8b:56:64:5b:56:d1:8c:f2:
                    0e:ad:18:25:ad:0b:1b:74:a4:17:ff:23:9a:00:a4:
                    22:b1:da:c4:96:8b:bb:6c:c9:1d:6d:17:72:0e:1d:
                    53:c7:6a:56:71:9f:f7:dd:12:0d:88:0b:40:63:91:
                    ca:2a:8a:03:64:c4:71:21:0c:ec:a2:49:e4:30:ea:
                    21:bd:67:00:72:2d:f7:b0:63:35:a6:aa:f0:a1:86:
                    6e:85:5f:d5:9c:ff:db:bb:99:a2:8e:65:ac:db:8c:
                    8e:5a:9b:21:3c:35:1d:89:f8:14:8c:c8:7d:58:4d:
                    36:ba:37:c8:21:4b:11:c5:c2:2e:d4:28:73:48:ec:
                    ee:19:89:1c:58:91:d0:62:bf:0f:c5:8a:59:5a:04:
                    17:eb:86:d4:e4:ec:ad:47:12:d3:74:88:04:c4:0e:
                    f9:b0:04:30:ac:4f:6e:24:e0:e3:8f:24:06:f4:cf:
                    81:71:11:08:c6:5b:85:66:6b:ba:e8:fc:9b:4f:78:
                    8f:f5:6f:b2:cd:d2:e3:e1:a6:22:ad:80:d4:8a:31:
                    1f:55:2e:25:7e:d3:1b:7e:95:49:4b:bc:ac:5b:51:
                    25:af:f0:ba:ab:20:13:56:63:f8:a7:f8:cb:45:7c:
                    dc:b8:1e:e2:09:32:51:0a:c0:59:88:fc:82:db:51:
                    02:7a:bf:89:dc:27:ed:53:d6:76:81:7c:c3:03:c8:
                    71:86:ef:1b:18:bc:36:12:6f:ab:e6:71:62:be:5e:
                    89:d9:2d:9d:c3:a0:3b:60:a1:bd:c7:58:b5:e0:a1:
                    7e:82:a8:fc:a3:51:4b:44:0a:d7:7c:42:22:7b:81:
                    91:1f:a6:a4:e7:b3:cf:82:49:af:c5:ad:b6:da:9e:
                    8e:ae:5e:e3:ee:dd:11:04:ff:57:10:e8:fe:ff:eb:
                    15:51:5f:cd:f8:30:0e:9d:c6:3b:fc:06:d6:c6:cb:
                    72:43:13
                Exponent: 65537 (0x10001)
        X509v3 extensions:
            X509v3 Subject Alternative Name: 
                DNS:server1.test
    Signature Algorithm: sha256WithRSAEncryption
         bd:1b:f8:00:34:af:9b:ce:ba:24:41:94:79:2d:7d:29:9a:43:
         da:7b:dc:d4:dd:d0:d3:ad:28:43:29:58:54:5c:4e:48:44:85:
         0b:01:c3:a9:f1:ac:7d:38:61:56:75:8c:e0:db:94:1b:31:90:
         87:c7:5b:60:d6:94:2b:d1:60:e6:12:70:21:99:7c:c1:8f:9b:
         24:28:c3:81:f4:25:99:54:63:d0:c1:10:fd:43:50:7b:36:db:
         a7:e4:0a:1b:4e:27:74:9d:79:96:23:90:24:72:65:44:9d:eb:
         75:29:ba:2f:3b:48:62:40:7e:0c:f8:da:94:41:18:aa:45:aa:
         d7:76:24:cf:78:3f:ae:ef:21:ae:48:e7:92:f1:6e:38:46:c4:
         eb:43:3c:47:66:99:c7:76:34:d9:8f:f9:e1:d7:49:33:e8:a4:
         bf:c3:b2:e5:de:0b:0c:16:42:73:6d:c3:f0:6d:12:ed:ad:80:
         99:5e:56:e7:93:2b:48:23:45:ae:5e:1f:1c:e3:3f:5f:65:60:
         39:b0:e9:ad:e7:4f:90:ea:fd:d6:74:5f:32:1c:db:41:2d:96:
         92:bd:e7:5c:04:e5:32:a5:1e:35:48:95:66:04:24:4e:e0:9a:
         5a:e6:ba:d0:fd:4a:53:80:45:ce:25:92:05:53:e3:87:8f:3f:
         ff:72:99:f9:dd:f1:3e:c2:aa:e6:4c:2f:36:60:10:03:7a:f9:
         1d:44:b9:06:3b:67:e0:55:f7:01:ab:45:c2:0b:49:af:41:21:
         7b:50:1d:ab:af:31:bc:30:71:81:76:c8:43:09:ef:00:15:7a:
         c7:af:8b:30:57:15:74:6f:ec:51:22:76:96:2a:a3:8e:e0:99:
         90:7d:7d:20:5a:dd:1c:bd:39:d9:6b:ce:e9:47:01:23:84:41:
         87:73:b9:59:2b:d7:6e:67:49:89:66:a4:e1:6b:1a:4f:28:80:
         bb:df:55:e2:47:d2:f5:83:86:7c:dc:dc:e5:62:91:39:7a:0c:
         2b:b9:6a:29:70:2a:68:f1:1b:59:fa:aa:a8:e4:1f:b3:de:af:
         d8:62:be:31:cc:63:4f:b0:cb:a9:9b:19:74:d1:83:a4:75:65:
         44:f8:3a:99:32:e0:9b:43:40:74:ea:d7:d9:d1:a8:7b:f7:c6:
         a6:1e:eb:ac:3b:c6:1d:f9:ef:58:f3:85:7c:44:4b:f5:03:e6:
         c4:b1:f6:c1:6a:88:7f:d3:18:56:de:d5:f0:14:77:5c:8b:81:
         17:cc:c8:d6:1d:95:9d:c3:bd:47:0b:9b:dc:6b:30:08:c0:79:
         ba:e7:ae:39:6a:a9:2a:bf:7f:3d:09:27:39:cc:2f:8b:b7:6d:
         05:ef:92:1a:92:14:3e:d2
-----BEGIN CERTIFICATE-----
MIIFFjCCAv6gAwIBAgICEAIwDQYJKoZIhvcNAQELBQAwNzELMAkGA1UEBhMCR0Ix
CjAIBgNVBAgMASAxCjAIBgNVBAoMASAxEDAOBgNVBAMMB1Rlc3QgQ0EwHhcNMjEx
MTI3MjAyNjE0WhcNMjIxMTI3MjAyNjE0WjBIMQswCQYDVQQGEwJHQjEKMAgGA1UE
CAwBIDEKMAgGA1UECgwBIDEKMAgGA1UECwwBIDEVMBMGA1UEAwwMc2VydmVyMS50
ZXN0MIICIjANBgkqhkiG9w0BAQEFAAOCAg8AMIICCgKCAgEAwQ2J3F7sRNYnuypW
mOkCUCBX9xpj9xIZptCFPuGdhUCBoe06tz5nBP6tPJphw0rVTaH9g6nWXg3Z+Q3a
okl5duC9AOxtxUn+wa8zcJhmwAky54nDWyXkVgzmN0pZK/1k2AZQG2vEdfe1sVX1
BmIa/BzLTty39by+dSCmv3/DLdBh9+QLBTg0iVpNjZziBkVaHKdMUGma3UZaoYQK
i1ZkW1bRjPIOrRglrQsbdKQX/yOaAKQisdrElou7bMkdbRdyDh1Tx2pWcZ/33RIN
iAtAY5HKKooDZMRxIQzsoknkMOohvWcAci33sGM1pqrwoYZuhV/VnP/bu5mijmWs
24yOWpshPDUdifgUjMh9WE02ujfIIUsRxcIu1ChzSOzuGYkcWJHQYr8PxYpZWgQX
64bU5OytRxLTdIgExA75sAQwrE9uJODjjyQG9M+BcREIxluFZmu66PybT3iP9W+y
zdLj4aYirYDUijEfVS4lftMbfpVJS7ysW1Elr/C6qyATVmP4p/jLRXzcuB7iCTJR
CsBZiPyC21ECer+J3CftU9Z2gXzDA8hxhu8bGLw2Em+r5nFivl6J2S2dw6A7YKG9
x1i14KF+gqj8o1FLRArXfEIie4GRH6ak57PPgkmvxa222p6Orl7j7t0RBP9XEOj+
/+sVUV/N+DAOncY7/AbWxstyQxMCAwEAAaMbMBkwFwYDVR0RBBAwDoIMc2VydmVy
MS50ZXN0MA0GCSqGSIb3DQEBCwUAA4ICAQC9G/gANK+bzrokQZR5LX0pmkPae9zU
3dDTrShDKVhUXE5IRIULAcOp8ax9OGFWdYzg25QbMZCHx1tg1pQr0WDmEnAhmXzB
j5skKMOB9CWZVGPQwRD9Q1B7Ntun5AobTid0nXmWI5AkcmVEnet1KbovO0hiQH4M
+NqUQRiqRarXdiTPeD+u7yGuSOeS8W44RsTrQzxHZpnHdjTZj/nh10kz6KS/w7Ll
3gsMFkJzbcPwbRLtrYCZXlbnkytII0WuXh8c4z9fZWA5sOmt50+Q6v3WdF8yHNtB
LZaSvedcBOUypR41SJVmBCRO4Jpa5rrQ/UpTgEXOJZIFU+OHjz//cpn53fE+wqrm
TC82YBADevkdRLkGO2fgVfcBq0XCC0mvQSF7UB2rrzG8MHGBdshDCe8AFXrHr4sw
VxV0b+xRInaWKqOO4JmQfX0gWt0cvTnZa87pRwEjhEGHc7lZK9duZ0mJZqThaxpP
KIC731XiR9L1g4Z83NzlYpE5egwruWopcCpo8RtZ+qqo5B+z3q/YYr4xzGNPsMup
mxl00YOkdWVE+DqZMuCbQ0B06tfZ0ah798amHuusO8Yd+e9Y84V8REv1A+bEsfbB
aoh/0xhW3tXwFHdci4EXzMjWHZWdw71HC5vcazAIwHm65645aqkqv389CSc5zC+L
t20F75IakhQ+0g==
-----END CERTIFICATE-----
