Certificate:
    Data:
        Version: 3 (0x2)
        Serial Number: 4108 (0x100c)
        Signature Algorithm: sha256WithRSAEncryption
        Issuer: C=GB, ST= , O= , CN=Test CA
        Validity
            Not Before: Dec  1 15:12:58 2022 GMT
            Not After : Dec  1 15:12:58 2023 GMT
        Subject: C=GB, ST= , O= , CN=server2.test
        Subject Public Key Info:
            Public Key Algorithm: rsaEncryption
                RSA Public-Key: (4096 bit)
                Modulus:
                    00:d5:87:ea:d7:7f:ea:e0:19:64:3d:07:54:c5:11:
                    e7:4b:56:5f:52:a0:03:9e:72:b2:44:a2:22:fc:4d:
                    e5:11:36:db:33:5a:02:21:be:eb:af:2c:c1:31:9f:
                    5d:f9:2a:65:ac:5c:89:f2:4f:0e:45:b0:85:92:91:
                    44:50:9b:0d:f7:8b:5f:12:39:52:bb:c7:ea:1b:d1:
                    c0:c7:86:c3:0f:d4:e7:3e:38:81:1f:24:b9:94:d0:
                    bb:5e:74:5b:a7:1a:c4:5f:d8:8d:b4:96:ac:44:22:
                    ff:05:02:83:16:53:b7:50:5d:c5:d1:e9:56:73:ef:
                    d5:f3:01:2a:63:f5:ca:d2:89:6b:e5:4f:2a:26:d4:
                    64:e6:2d:89:f4:38:7a:27:ba:fc:c5:20:a3:33:fe:
                    10:7e:91:29:4a:24:c2:29:ec:8d:5a:cf:83:fe:90:
                    85:24:f8:0b:b9:01:11:94:b9:e1:af:db:e9:c1:6c:
                    5d:91:38:8d:92:ed:e9:74:a1:08:fe:27:ae:97:06:
                    c8:39:85:cb:fe:13:dd:ba:f0:e5:87:f1:ef:f2:b7:
                    e6:03:3a:fe:c5:23:53:3d:74:52:ef:ab:0f:4f:cf:
                    44:67:bb:2c:a7:d4:94:f0:4c:54:74:48:1c:d1:ab:
                    a2:c3:e3:49:29:ff:e5:9c:55:1b:ca:ee:59:47:7c:
                    2a:9d:4c:6b:48:9e:ce:98:fb:2f:85:3d:8c:1f:57:
                    2b:87:20:30:d0:13:17:19:69:35:df:c3:1b:37:d4:
                    91:2c:c9:2c:db:76:35:61:34:08:ee:8b:f0:ae:96:
                    db:e3:81:7c:c1:45:6c:cd:83:25:f9:d4:f4:00:99:
                    83:70:49:d9:d1:90:24:91:68:03:4c:85:cb:98:f7:
                    fc:51:9b:a0:4d:b5:f4:57:7b:72:cf:81:4d:a9:44:
                    67:28:85:08:04:17:87:88:71:6a:4a:b0:b8:6e:8a:
                    20:e7:70:c6:68:57:d2:df:02:86:a0:86:56:0d:d6:
                    bd:6d:37:1f:ee:ea:d1:c2:20:97:8b:f3:e7:39:0f:
                    e7:a4:8c:6f:52:4e:3f:4b:08:04:5b:14:a7:ba:ff:
                    c9:2a:17:83:48:94:b1:58:34:47:e8:b6:a2:f2:db:
                    21:e2:f9:86:09:5d:d0:e2:c6:cd:0e:b0:35:a2:89:
                    c0:06:7d:af:65:83:6d:92:82:b2:d6:dc:95:4f:ba:
                    80:f8:c1:b7:ea:40:1e:c2:6c:2d:1c:32:e5:65:b8:
                    5e:2b:b2:5e:4e:1d:48:4f:42:3b:c1:b2:83:1e:4c:
                    5f:90:c0:25:9d:e0:86:c1:c5:1c:ee:68:c5:c0:80:
                    cd:e1:c4:40:5f:70:5f:52:46:60:d1:69:9e:c1:02:
                    5e:a6:4d
                Exponent: 65537 (0x10001)
        X509v3 extensions:
            X509v3 Subject Alternative Name: 
                DNS:server2.test
    Signature Algorithm: sha256WithRSAEncryption
         9c:ec:fb:4b:16:ad:d4:4d:1d:a2:c4:22:62:a6:2a:1f:57:11:
         08:4c:ee:01:bd:1c:60:90:e0:32:62:9e:ec:c3:42:fb:c3:eb:
         d5:cc:ee:52:2c:c5:81:0a:e0:f1:b1:40:d3:5e:23:84:47:82:
         50:89:42:1d:07:d9:c9:7b:ea:45:7c:70:15:9d:be:61:53:b0:
         54:20:c0:9f:af:3e:c0:df:7e:30:d2:26:ef:30:dd:bd:13:a7:
         20:f2:39:5f:a4:b0:60:10:11:cf:b2:e5:ac:24:8a:9c:36:6a:
         ac:5f:6f:c9:9f:93:52:a7:4b:cc:4e:af:30:84:ee:dc:7a:8d:
         63:42:b7:aa:f5:50:22:6c:de:db:57:be:95:7c:c0:55:91:30:
         40:89:80:65:22:c0:3e:f2:a0:13:1b:ab:36:68:3f:1b:e9:0f:
         8b:e9:22:ed:f5:d3:5e:1f:77:1a:1a:72:b8:38:8c:8b:e2:a2:
         fd:48:ed:f1:d3:6d:bd:f6:a1:48:23:12:c5:3d:7d:7b:39:45:
         4a:0a:a9:7b:3a:c3:4f:c1:4c:02:04:32:c3:71:aa:69:04:d8:
         6f:45:9a:3c:9c:b7:83:1f:9e:e7:aa:f4:76:1f:98:20:50:3b:
         07:9f:68:68:9e:6d:a2:f9:cc:ac:1f:4d:25:77:1b:34:3e:0b:
         67:4e:d8:1c:a4:70:2f:fb:6d:4d:ba:db:50:95:54:92:ab:01:
         96:a5:e4:ca:8b:20:9b:64:8c:13:80:b6:12:d4:ec:ea:0a:64:
         ac:1c:26:3d:23:e7:fc:b2:df:52:9a:7f:b6:6f:e0:33:4a:38:
         1d:4a:bd:85:22:ee:af:53:7a:99:0e:6e:d5:8a:db:b5:13:45:
         3b:b1:cf:d7:a7:ec:1b:80:db:74:3f:5d:2e:00:ba:c6:10:de:
         b5:0a:4f:5b:6a:f8:c1:ec:7a:4c:ee:8f:e1:c5:e7:33:75:8c:
         12:7e:cf:43:16:fb:7c:1c:21:51:e1:c4:d1:5c:24:cf:3a:ff:
         ed:53:56:45:29:bf:5f:7f:00:7b:ac:88:3d:2c:1e:5f:87:f8:
         a9:da:2f:56:e4:52:ea:02:ef:49:47:d4:18:b8:10:fb:6a:bd:
         5f:0d:f3:b1:66:ea:eb:37:ba:75:c2:e0:a8:e5:f5:04:14:4d:
         be:76:4d:9c:af:2b:83:fd:05:c5:e2:97:75:66:25:95:16:41:
         ea:14:40:8a:f5:88:cc:ea:9d:2e:12:cc:a9:51:ef:e1:7b:ec:
         d0:5d:71:1c:12:94:d3:12:d4:d3:f6:77:ba:9f:0c:b2:ed:f7:
         19:78:ae:0a:da:5b:16:b5:c4:32:56:00:d6:79:4b:0d:64:0c:
         52:f8:23:1b:6b:3c:40:84
-----BEGIN CERTIFICATE-----
MIIFCjCCAvKgAwIBAgICEAwwDQYJKoZIhvcNAQELBQAwNzELMAkGA1UEBhMCR0Ix
CjAIBgNVBAgMASAxCjAIBgNVBAoMASAxEDAOBgNVBAMMB1Rlc3QgQ0EwHhcNMjIx
MjAxMTUxMjU4WhcNMjMxMjAxMTUxMjU4WjA8MQswCQYDVQQGEwJHQjEKMAgGA1UE
CAwBIDEKMAgGA1UECgwBIDEVMBMGA1UEAwwMc2VydmVyMi50ZXN0MIICIjANBgkq
hkiG9w0BAQEFAAOCAg8AMIICCgKCAgEA1Yfq13/q4BlkPQdUxRHnS1ZfUqADnnKy
RKIi/E3lETbbM1oCIb7rryzBMZ9d+SplrFyJ8k8ORbCFkpFEUJsN94tfEjlSu8fq
G9HAx4bDD9TnPjiBHyS5lNC7XnRbpxrEX9iNtJasRCL/BQKDFlO3UF3F0elWc+/V
8wEqY/XK0olr5U8qJtRk5i2J9Dh6J7r8xSCjM/4QfpEpSiTCKeyNWs+D/pCFJPgL
uQERlLnhr9vpwWxdkTiNku3pdKEI/ieulwbIOYXL/hPduvDlh/Hv8rfmAzr+xSNT
PXRS76sPT89EZ7ssp9SU8ExUdEgc0auiw+NJKf/lnFUbyu5ZR3wqnUxrSJ7OmPsv
hT2MH1crhyAw0BMXGWk138MbN9SRLMks23Y1YTQI7ovwrpbb44F8wUVszYMl+dT0
AJmDcEnZ0ZAkkWgDTIXLmPf8UZugTbX0V3tyz4FNqURnKIUIBBeHiHFqSrC4boog
53DGaFfS3wKGoIZWDda9bTcf7urRwiCXi/PnOQ/npIxvUk4/SwgEWxSnuv/JKheD
SJSxWDRH6Lai8tsh4vmGCV3Q4sbNDrA1oonABn2vZYNtkoKy1tyVT7qA+MG36kAe
wmwtHDLlZbheK7JeTh1IT0I7wbKDHkxfkMAlneCGwcUc7mjFwIDN4cRAX3BfUkZg
0WmewQJepk0CAwEAAaMbMBkwFwYDVR0RBBAwDoIMc2VydmVyMi50ZXN0MA0GCSqG
SIb3DQEBCwUAA4ICAQCc7PtLFq3UTR2ixCJipiofVxEITO4BvRxgkOAyYp7sw0L7
w+vVzO5SLMWBCuDxsUDTXiOER4JQiUIdB9nJe+pFfHAVnb5hU7BUIMCfrz7A334w
0ibvMN29E6cg8jlfpLBgEBHPsuWsJIqcNmqsX2/Jn5NSp0vMTq8whO7ceo1jQreq
9VAibN7bV76VfMBVkTBAiYBlIsA+8qATG6s2aD8b6Q+L6SLt9dNeH3caGnK4OIyL
4qL9SO3x02299qFIIxLFPX17OUVKCql7OsNPwUwCBDLDcappBNhvRZo8nLeDH57n
qvR2H5ggUDsHn2honm2i+cysH00ldxs0PgtnTtgcpHAv+21NuttQlVSSqwGWpeTK
iyCbZIwTgLYS1OzqCmSsHCY9I+f8st9Smn+2b+AzSjgdSr2FIu6vU3qZDm7Vitu1
E0U7sc/Xp+wbgNt0P10uALrGEN61Ck9bavjB7HpM7o/hxeczdYwSfs9DFvt8HCFR
4cTRXCTPOv/tU1ZFKb9ffwB7rIg9LB5fh/ip2i9W5FLqAu9JR9QYuBD7ar1fDfOx
ZurrN7p1wuCo5fUEFE2+dk2cryuD/QXF4pd1ZiWVFkHqFECK9YjM6p0uEsypUe/h
e+zQXXEcEpTTEtTT9ne6nwyy7fcZeK4K2lsWtcQyVgDWeUsNZAxS+CMbazxAhA==
-----END CERTIFICATE-----
